(lp0
(dp1
S'duration'
p2
I1
sS'objectives'
p3
(lp4
(dp5
S'consign'
p6
F26.51
sS'name'
p7
S'l_shoulder_y'
p8
sS'nature'
p9
S'L'
p10
sa(dp11
g6
F1.27
sg7
S'l_shoulder_x'
p12
sg9
g10
sa(dp13
g6
F-14.46
sg7
S'l_arm_z'
p14
sg9
g10
sa(dp15
g6
F-12.53
sg7
S'l_elbow_y'
p16
sg9
g10
sa(dp17
g6
F33.71
sg7
S'r_shoulder_y'
p18
sg9
g10
sa(dp19
g6
F-20.18
sg7
S'r_shoulder_x'
p20
sg9
g10
sa(dp21
g6
F2.68
sg7
S'r_arm_z'
p22
sg9
g10
sa(dp23
g6
F-13.93
sg7
S'r_elbow_y'
p24
sg9
g10
sa(dp25
g6
F-9.53
sg7
S'head_y'
p26
sg9
g10
sa(dp27
g6
F22.96
sg7
S'head_z'
p28
sg9
g10
sa(dp29
g6
F-8.13
sg7
S'abs_x'
p30
sg9
g10
sa(dp31
g6
F-2.33
sg7
S'abs_y'
p32
sg9
g10
sa(dp33
g6
F1.1
sg7
S'abs_z'
p34
sg9
g10
sa(dp35
g6
F-17.19
sg7
S'bust_y'
p36
sg9
g10
sa(dp37
g6
F15.69
sg7
S'bust_x'
p38
sg9
g10
sa(dp39
g6
F2.59
sg7
S'l_hip_x'
p40
sg9
g10
sa(dp41
g6
F-15.08
sg7
S'l_hip_z'
p42
sg9
g10
sa(dp43
g6
F-10.95
sg7
S'l_hip_y'
p44
sg9
g10
sa(dp45
g6
F-4.88
sg7
S'l_knee_y'
p46
sg9
g10
sa(dp47
g6
F50.68
sg7
S'l_ankle_y'
p48
sg9
g10
sa(dp49
g6
F4.26
sg7
S'r_hip_x'
p50
sg9
g10
sa(dp51
g6
F5.14
sg7
S'r_hip_z'
p52
sg9
g10
sa(dp53
g6
F-8.92
sg7
S'r_hip_y'
p54
sg9
g10
sa(dp55
g6
F-5.85
sg7
S'r_knee_y'
p56
sg9
g10
sa(dp57
g6
F59.91
sg7
S'r_ankle_y'
p58
sg9
g10
sa(dp59
g6
I0
sg7
S'r_wrist_z'
p60
sg9
g10
sa(dp61
g6
I0
sg7
S'r_wrist_x'
p62
sg9
g10
sa(dp63
g6
I0
sg7
S'l_wrist_z'
p64
sg9
g10
sa(dp65
g6
I0
sg7
S'l_wrist_x'
p66
sg9
g10
sasg7
S'toto'
p67
sa(dp68
g2
I1
sg3
(lp69
(dp70
g6
F26.59
sg7
g8
sg9
g10
sa(dp71
g6
F1.27
sg7
g12
sg9
g10
sa(dp72
g6
F-14.46
sg7
g14
sg9
g10
sa(dp73
g6
F-12.53
sg7
g16
sg9
g10
sa(dp74
g6
F6.46
sg7
g18
sg9
g10
sa(dp75
g6
F-19.82
sg7
g20
sg9
g10
sa(dp76
g6
F2.68
sg7
g22
sg9
g10
sa(dp77
g6
F-70.64
sg7
g24
sg9
g10
sa(dp78
g6
F-9.82
sg7
g26
sg9
g10
sa(dp79
g6
F22.96
sg7
g28
sg9
g10
sa(dp80
g6
F-8.13
sg7
g30
sg9
g10
sa(dp81
g6
F-2.42
sg7
g32
sg9
g10
sa(dp82
g6
F1.1
sg7
g34
sg9
g10
sa(dp83
g6
F-17.45
sg7
g36
sg9
g10
sa(dp84
g6
F15.96
sg7
g38
sg9
g10
sa(dp85
g6
F2.68
sg7
g40
sg9
g10
sa(dp86
g6
F-15.08
sg7
g42
sg9
g10
sa(dp87
g6
F-10.95
sg7
g44
sg9
g10
sa(dp88
g6
F-4.79
sg7
g46
sg9
g10
sa(dp89
g6
F50.59
sg7
g48
sg9
g10
sa(dp90
g6
F4.26
sg7
g50
sg9
g10
sa(dp91
g6
F5.14
sg7
g52
sg9
g10
sa(dp92
g6
F-8.92
sg7
g54
sg9
g10
sa(dp93
g6
F-5.85
sg7
g56
sg9
g10
sa(dp94
g6
F59.91
sg7
g58
sg9
g10
sa(dp95
g6
I0
sg7
g60
sg9
g10
sa(dp96
g6
I0
sg7
g62
sg9
g10
sa(dp97
g6
I0
sg7
g64
sg9
g10
sa(dp98
g6
I0
sg7
g66
sg9
g10
sasg7
g67
sa(dp99
g2
I1
sg3
(lp100
(dp101
g6
F26.59
sg7
g8
sg9
g10
sa(dp102
g6
F1.27
sg7
g12
sg9
g10
sa(dp103
g6
F-14.46
sg7
g14
sg9
g10
sa(dp104
g6
F-12.53
sg7
g16
sg9
g10
sa(dp105
g6
F-41.45
sg7
g18
sg9
g10
sa(dp106
g6
F-17.98
sg7
g20
sg9
g10
sa(dp107
g6
F2.68
sg7
g22
sg9
g10
sa(dp108
g6
F-70.55
sg7
g24
sg9
g10
sa(dp109
g6
F-9.82
sg7
g26
sg9
g10
sa(dp110
g6
F23.259999999999998
sg7
g28
sg9
g10
sa(dp111
g6
F-8.13
sg7
g30
sg9
g10
sa(dp112
g6
F-2.33
sg7
g32
sg9
g10
sa(dp113
g6
F1.1
sg7
g34
sg9
g10
sa(dp114
g6
F-17.36
sg7
g36
sg9
g10
sa(dp115
g6
F15.87
sg7
g38
sg9
g10
sa(dp116
g6
F2.68
sg7
g40
sg9
g10
sa(dp117
g6
F-15.08
sg7
g42
sg9
g10
sa(dp118
g6
F-10.95
sg7
g44
sg9
g10
sa(dp119
g6
F-4.88
sg7
g46
sg9
g10
sa(dp120
g6
F50.59
sg7
g48
sg9
g10
sa(dp121
g6
F4.26
sg7
g50
sg9
g10
sa(dp122
g6
F5.14
sg7
g52
sg9
g10
sa(dp123
g6
F-9.01
sg7
g54
sg9
g10
sa(dp124
g6
F-5.85
sg7
g56
sg9
g10
sa(dp125
g6
F59.91
sg7
g58
sg9
g10
sa(dp126
g6
I0
sg7
g60
sg9
g10
sa(dp127
g6
I0
sg7
g62
sg9
g10
sa(dp128
g6
I0
sg7
g64
sg9
g10
sa(dp129
g6
I0
sg7
g66
sg9
g10
sasg7
g67
sa(dp130
g2
I1
sg3
(lp131
(dp132
g6
F26.68
sg7
g8
sg9
g10
sa(dp133
g6
F1.27
sg7
g12
sg9
g10
sa(dp134
g6
F-14.46
sg7
g14
sg9
g10
sa(dp135
g6
F-12.53
sg7
g16
sg9
g10
sa(dp136
g6
F-75.82
sg7
g18
sg9
g10
sa(dp137
g6
F-1.19
sg7
g20
sg9
g10
sa(dp138
g6
F2.68
sg7
g22
sg9
g10
sa(dp139
g6
F2.59
sg7
g24
sg9
g10
sa(dp140
g6
F-9.24
sg7
g26
sg9
g10
sa(dp141
g6
F23.259999999999998
sg7
g28
sg9
g10
sa(dp142
g6
F-8.13
sg7
g30
sg9
g10
sa(dp143
g6
F-2.33
sg7
g32
sg9
g10
sa(dp144
g6
F1.1
sg7
g34
sg9
g10
sa(dp145
g6
F-17.45
sg7
g36
sg9
g10
sa(dp146
g6
F15.52
sg7
g38
sg9
g10
sa(dp147
g6
F2.68
sg7
g40
sg9
g10
sa(dp148
g6
F-15.08
sg7
g42
sg9
g10
sa(dp149
g6
F-10.95
sg7
g44
sg9
g10
sa(dp150
g6
F-4.88
sg7
g46
sg9
g10
sa(dp151
g6
F50.68
sg7
g48
sg9
g10
sa(dp152
g6
F4.26
sg7
g50
sg9
g10
sa(dp153
g6
F5.14
sg7
g52
sg9
g10
sa(dp154
g6
F-9.01
sg7
g54
sg9
g10
sa(dp155
g6
F-5.85
sg7
g56
sg9
g10
sa(dp156
g6
F59.91
sg7
g58
sg9
g10
sa(dp157
g6
I0
sg7
g60
sg9
g10
sa(dp158
g6
I0
sg7
g62
sg9
g10
sa(dp159
g6
I0
sg7
g64
sg9
g10
sa(dp160
g6
I0
sg7
g66
sg9
g10
sasg7
g67
sa(dp161
g2
I1
sg3
(lp162
(dp163
g6
F-11.56
sg7
g8
sg9
g10
sa(dp164
g6
F-0.92
sg7
g12
sg9
g10
sa(dp165
g6
F-0.75
sg7
g14
sg9
g10
sa(dp166
g6
F-44.79
sg7
g16
sg9
g10
sa(dp167
g6
F-73.45
sg7
g18
sg9
g10
sa(dp168
g6
F-0.04
sg7
g20
sg9
g10
sa(dp169
g6
F2.68
sg7
g22
sg9
g10
sa(dp170
g6
F-0.22
sg7
g24
sg9
g10
sa(dp171
g6
F-8.65
sg7
g26
sg9
g10
sa(dp172
g6
F24.43
sg7
g28
sg9
g10
sa(dp173
g6
F-8.13
sg7
g30
sg9
g10
sa(dp174
g6
F-2.33
sg7
g32
sg9
g10
sa(dp175
g6
F-2.15
sg7
g34
sg9
g10
sa(dp176
g6
F-17.27
sg7
g36
sg9
g10
sa(dp177
g6
F13.32
sg7
g38
sg9
g10
sa(dp178
g6
F2.68
sg7
g40
sg9
g10
sa(dp179
g6
F-15.08
sg7
g42
sg9
g10
sa(dp180
g6
F-11.12
sg7
g44
sg9
g10
sa(dp181
g6
F-4.88
sg7
g46
sg9
g10
sa(dp182
g6
F50.59
sg7
g48
sg9
g10
sa(dp183
g6
F4.09
sg7
g50
sg9
g10
sa(dp184
g6
F5.23
sg7
g52
sg9
g10
sa(dp185
g6
F-9.01
sg7
g54
sg9
g10
sa(dp186
g6
F-5.85
sg7
g56
sg9
g10
sa(dp187
g6
F60.0
sg7
g58
sg9
g10
sa(dp188
g6
I0
sg7
g60
sg9
g10
sa(dp189
g6
I0
sg7
g62
sg9
g10
sa(dp190
g6
I0
sg7
g64
sg9
g10
sa(dp191
g6
I0
sg7
g66
sg9
g10
sasg7
g67
sa(dp192
g2
I1
sg3
(lp193
(dp194
g6
F-44.09
sg7
g8
sg9
g10
sa(dp195
g6
F-0.04
sg7
g12
sg9
g10
sa(dp196
g6
F-0.75
sg7
g14
sg9
g10
sa(dp197
g6
F-36.18
sg7
g16
sg9
g10
sa(dp198
g6
F-73.36
sg7
g18
sg9
g10
sa(dp199
g6
F-0.13
sg7
g20
sg9
g10
sa(dp200
g6
F2.68
sg7
g22
sg9
g10
sa(dp201
g6
F-0.22
sg7
g24
sg9
g10
sa(dp202
g6
F-8.65
sg7
g26
sg9
g10
sa(dp203
g6
F24.43
sg7
g28
sg9
g10
sa(dp204
g6
F-8.13
sg7
g30
sg9
g10
sa(dp205
g6
F-2.33
sg7
g32
sg9
g10
sa(dp206
g6
F-4.53
sg7
g34
sg9
g10
sa(dp207
g6
F-17.1
sg7
g36
sg9
g10
sa(dp208
g6
F13.49
sg7
g38
sg9
g10
sa(dp209
g6
F2.68
sg7
g40
sg9
g10
sa(dp210
g6
F-15.08
sg7
g42
sg9
g10
sa(dp211
g6
F-11.47
sg7
g44
sg9
g10
sa(dp212
g6
F-4.88
sg7
g46
sg9
g10
sa(dp213
g6
F50.68
sg7
g48
sg9
g10
sa(dp214
g6
F3.91
sg7
g50
sg9
g10
sa(dp215
g6
F5.32
sg7
g52
sg9
g10
sa(dp216
g6
F-9.19
sg7
g54
sg9
g10
sa(dp217
g6
F-5.85
sg7
g56
sg9
g10
sa(dp218
g6
F60.0
sg7
g58
sg9
g10
sa(dp219
g6
I0
sg7
g60
sg9
g10
sa(dp220
g6
I0
sg7
g62
sg9
g10
sa(dp221
g6
I0
sg7
g64
sg9
g10
sa(dp222
g6
I0
sg7
g66
sg9
g10
sasg7
g67
sa(dp223
g2
I1
sg3
(lp224
(dp225
g6
F-74.68
sg7
g8
sg9
g10
sa(dp226
g6
F1.36
sg7
g12
sg9
g10
sa(dp227
g6
F-0.75
sg7
g14
sg9
g10
sa(dp228
g6
F0.84
sg7
g16
sg9
g10
sa(dp229
g6
F-73.36
sg7
g18
sg9
g10
sa(dp230
g6
F-0.22
sg7
g20
sg9
g10
sa(dp231
g6
F2.68
sg7
g22
sg9
g10
sa(dp232
g6
F-0.22
sg7
g24
sg9
g10
sa(dp233
g6
F-8.65
sg7
g26
sg9
g10
sa(dp234
g6
F24.43
sg7
g28
sg9
g10
sa(dp235
g6
F-8.13
sg7
g30
sg9
g10
sa(dp236
g6
F-2.33
sg7
g32
sg9
g10
sa(dp237
g6
F-5.76
sg7
g34
sg9
g10
sa(dp238
g6
F-16.84
sg7
g36
sg9
g10
sa(dp239
g6
F14.11
sg7
g38
sg9
g10
sa(dp240
g6
F2.68
sg7
g40
sg9
g10
sa(dp241
g6
F-15.08
sg7
g42
sg9
g10
sa(dp242
g6
F-11.65
sg7
g44
sg9
g10
sa(dp243
g6
F-4.79
sg7
g46
sg9
g10
sa(dp244
g6
F50.68
sg7
g48
sg9
g10
sa(dp245
g6
F3.91
sg7
g50
sg9
g10
sa(dp246
g6
F5.23
sg7
g52
sg9
g10
sa(dp247
g6
F-9.19
sg7
g54
sg9
g10
sa(dp248
g6
F-5.85
sg7
g56
sg9
g10
sa(dp249
g6
F60.09
sg7
g58
sg9
g10
sa(dp250
g6
I0
sg7
g60
sg9
g10
sa(dp251
g6
I0
sg7
g62
sg9
g10
sa(dp252
g6
I0
sg7
g64
sg9
g10
sa(dp253
g6
I0
sg7
g66
sg9
g10
sasg7
g67
sa(dp254
g2
I1
sg3
(lp255
(dp256
g6
F-65.63
sg7
g8
sg9
g10
sa(dp257
g6
F2.86
sg7
g12
sg9
g10
sa(dp258
g6
F-0.75
sg7
g14
sg9
g10
sa(dp259
g6
F0.13
sg7
g16
sg9
g10
sa(dp260
g6
F-73.19
sg7
g18
sg9
g10
sa(dp261
g6
F-0.31
sg7
g20
sg9
g10
sa(dp262
g6
F2.68
sg7
g22
sg9
g10
sa(dp263
g6
F-0.13
sg7
g24
sg9
g10
sa(dp264
g6
F-8.65
sg7
g26
sg9
g10
sa(dp265
g6
F8.59
sg7
g28
sg9
g10
sa(dp266
g6
F-8.04
sg7
g30
sg9
g10
sa(dp267
g6
F-3.21
sg7
g32
sg9
g10
sa(dp268
g6
F1.27
sg7
g34
sg9
g10
sa(dp269
g6
F20.0
sg7
g36
sg9
g10
sa(dp270
g6
F10.33
sg7
g38
sg9
g10
sa(dp271
g6
F5.05
sg7
g40
sg9
g10
sa(dp272
g6
F-16.4
sg7
g42
sg9
g10
sa(dp273
g6
F-12.44
sg7
g44
sg9
g10
sa(dp274
g6
F-4.88
sg7
g46
sg9
g10
sa(dp275
g6
F50.59
sg7
g48
sg9
g10
sa(dp276
g6
F6.11
sg7
g50
sg9
g10
sa(dp277
g6
F4.53
sg7
g52
sg9
g10
sa(dp278
g6
F-9.98
sg7
g54
sg9
g10
sa(dp279
g6
F-5.85
sg7
g56
sg9
g10
sa(dp280
g6
F60.09
sg7
g58
sg9
g10
sa(dp281
g6
I0
sg7
g60
sg9
g10
sa(dp282
g6
I0
sg7
g62
sg9
g10
sa(dp283
g6
I0
sg7
g64
sg9
g10
sa(dp284
g6
I0
sg7
g66
sg9
g10
sasg7
g67
sa(dp285
g2
I1
sg3
(lp286
(dp287
g6
F-65.63
sg7
g8
sg9
g10
sa(dp288
g6
F3.03
sg7
g12
sg9
g10
sa(dp289
g6
F-0.75
sg7
g14
sg9
g10
sa(dp290
g6
F0.22
sg7
g16
sg9
g10
sa(dp291
g6
F-73.19
sg7
g18
sg9
g10
sa(dp292
g6
F-0.22
sg7
g20
sg9
g10
sa(dp293
g6
F2.68
sg7
g22
sg9
g10
sa(dp294
g6
F-0.13
sg7
g24
sg9
g10
sa(dp295
g6
F-8.65
sg7
g26
sg9
g10
sa(dp296
g6
F8.010000000000002
sg7
g28
sg9
g10
sa(dp297
g6
F-8.04
sg7
g30
sg9
g10
sa(dp298
g6
F-3.03
sg7
g32
sg9
g10
sa(dp299
g6
F2.24
sg7
g34
sg9
g10
sa(dp300
g6
F44.88
sg7
g36
sg9
g10
sa(dp301
g6
F2.33
sg7
g38
sg9
g10
sa(dp302
g6
F5.14
sg7
g40
sg9
g10
sa(dp303
g6
F-16.57
sg7
g42
sg9
g10
sa(dp304
g6
F-12.44
sg7
g44
sg9
g10
sa(dp305
g6
F-4.88
sg7
g46
sg9
g10
sa(dp306
g6
F50.68
sg7
g48
sg9
g10
sa(dp307
g6
F6.11
sg7
g50
sg9
g10
sa(dp308
g6
F4.53
sg7
g52
sg9
g10
sa(dp309
g6
F-10.07
sg7
g54
sg9
g10
sa(dp310
g6
F-5.93
sg7
g56
sg9
g10
sa(dp311
g6
F60.18
sg7
g58
sg9
g10
sa(dp312
g6
I0
sg7
g60
sg9
g10
sa(dp313
g6
I0
sg7
g62
sg9
g10
sa(dp314
g6
I0
sg7
g64
sg9
g10
sa(dp315
g6
I0
sg7
g66
sg9
g10
sasg7
g67
sa(dp316
g2
I1
sg3
(lp317
(dp318
g6
F-65.54
sg7
g8
sg9
g10
sa(dp319
g6
F3.21
sg7
g12
sg9
g10
sa(dp320
g6
F-0.75
sg7
g14
sg9
g10
sa(dp321
g6
F0.22
sg7
g16
sg9
g10
sa(dp322
g6
F-73.89
sg7
g18
sg9
g10
sa(dp323
g6
F0.13
sg7
g20
sg9
g10
sa(dp324
g6
F2.68
sg7
g22
sg9
g10
sa(dp325
g6
F-0.13
sg7
g24
sg9
g10
sa(dp326
g6
F-8.65
sg7
g26
sg9
g10
sa(dp327
g6
F7.420000000000002
sg7
g28
sg9
g10
sa(dp328
g6
F11.12
sg7
g30
sg9
g10
sa(dp329
g6
F-3.03
sg7
g32
sg9
g10
sa(dp330
g6
F6.37
sg7
g34
sg9
g10
sa(dp331
g6
F56.57
sg7
g36
sg9
g10
sa(dp332
g6
F-1.89
sg7
g38
sg9
g10
sa(dp333
g6
F5.41
sg7
g40
sg9
g10
sa(dp334
g6
F-22.64
sg7
g42
sg9
g10
sa(dp335
g6
F-10.07
sg7
g44
sg9
g10
sa(dp336
g6
F-4.79
sg7
g46
sg9
g10
sa(dp337
g6
F50.59
sg7
g48
sg9
g10
sa(dp338
g6
F5.41
sg7
g50
sg9
g10
sa(dp339
g6
F4.18
sg7
g52
sg9
g10
sa(dp340
g6
F-7.08
sg7
g54
sg9
g10
sa(dp341
g6
F-5.85
sg7
g56
sg9
g10
sa(dp342
g6
F62.81
sg7
g58
sg9
g10
sa(dp343
g6
I0
sg7
g60
sg9
g10
sa(dp344
g6
I0
sg7
g62
sg9
g10
sa(dp345
g6
I0
sg7
g64
sg9
g10
sa(dp346
g6
I0
sg7
g66
sg9
g10
sasg7
g67
sa(dp347
g2
I1
sg3
(lp348
(dp349
g6
F-65.54
sg7
g8
sg9
g10
sa(dp350
g6
F3.21
sg7
g12
sg9
g10
sa(dp351
g6
F-0.75
sg7
g14
sg9
g10
sa(dp352
g6
F0.22
sg7
g16
sg9
g10
sa(dp353
g6
F-72.4
sg7
g18
sg9
g10
sa(dp354
g6
F-0.31
sg7
g20
sg9
g10
sa(dp355
g6
F2.68
sg7
g22
sg9
g10
sa(dp356
g6
F0.13
sg7
g24
sg9
g10
sa(dp357
g6
F-8.36
sg7
g26
sg9
g10
sa(dp358
g6
F-0.7899999999999991
sg7
g28
sg9
g10
sa(dp359
g6
F11.38
sg7
g30
sg9
g10
sa(dp360
g6
F-3.12
sg7
g32
sg9
g10
sa(dp361
g6
F8.92
sg7
g34
sg9
g10
sa(dp362
g6
F17.71
sg7
g36
sg9
g10
sa(dp363
g6
F10.15
sg7
g38
sg9
g10
sa(dp364
g6
F6.29
sg7
g40
sg9
g10
sa(dp365
g6
F-28.88
sg7
g42
sg9
g10
sa(dp366
g6
F-8.75
sg7
g44
sg9
g10
sa(dp367
g6
F-4.88
sg7
g46
sg9
g10
sa(dp368
g6
F50.68
sg7
g48
sg9
g10
sa(dp369
g6
F6.02
sg7
g50
sg9
g10
sa(dp370
g6
F3.82
sg7
g52
sg9
g10
sa(dp371
g6
F-5.23
sg7
g54
sg9
g10
sa(dp372
g6
F-5.85
sg7
g56
sg9
g10
sa(dp373
g6
F64.92
sg7
g58
sg9
g10
sa(dp374
g6
I0
sg7
g60
sg9
g10
sa(dp375
g6
I0
sg7
g62
sg9
g10
sa(dp376
g6
I0
sg7
g64
sg9
g10
sa(dp377
g6
I0
sg7
g66
sg9
g10
sasg7
g67
sa(dp378
g2
I1
sg3
(lp379
(dp380
g6
F-65.54
sg7
g8
sg9
g10
sa(dp381
g6
F3.21
sg7
g12
sg9
g10
sa(dp382
g6
F-0.75
sg7
g14
sg9
g10
sa(dp383
g6
F0.22
sg7
g16
sg9
g10
sa(dp384
g6
F-72.4
sg7
g18
sg9
g10
sa(dp385
g6
F-0.31
sg7
g20
sg9
g10
sa(dp386
g6
F2.68
sg7
g22
sg9
g10
sa(dp387
g6
F0.13
sg7
g24
sg9
g10
sa(dp388
g6
F-8.36
sg7
g26
sg9
g10
sa(dp389
g6
F-2.2600000000000016
sg7
g28
sg9
g10
sa(dp390
g6
F11.21
sg7
g30
sg9
g10
sa(dp391
g6
F-2.51
sg7
g32
sg9
g10
sa(dp392
g6
F1.8
sg7
g34
sg9
g10
sa(dp393
g6
F-6.02
sg7
g36
sg9
g10
sa(dp394
g6
F7.43
sg7
g38
sg9
g10
sa(dp395
g6
F5.76
sg7
g40
sg9
g10
sa(dp396
g6
F-28.97
sg7
g42
sg9
g10
sa(dp397
g6
F-8.75
sg7
g44
sg9
g10
sa(dp398
g6
F-4.88
sg7
g46
sg9
g10
sa(dp399
g6
F50.68
sg7
g48
sg9
g10
sa(dp400
g6
F5.67
sg7
g50
sg9
g10
sa(dp401
g6
F3.82
sg7
g52
sg9
g10
sa(dp402
g6
F-5.23
sg7
g54
sg9
g10
sa(dp403
g6
F-5.85
sg7
g56
sg9
g10
sa(dp404
g6
F65.01
sg7
g58
sg9
g10
sa(dp405
g6
I0
sg7
g60
sg9
g10
sa(dp406
g6
I0
sg7
g62
sg9
g10
sa(dp407
g6
I0
sg7
g64
sg9
g10
sa(dp408
g6
I0
sg7
g66
sg9
g10
sasg7
g67
sa(dp409
g2
I1
sg3
(lp410
(dp411
g6
F-65.63
sg7
g8
sg9
g10
sa(dp412
g6
F2.86
sg7
g12
sg9
g10
sa(dp413
g6
F-0.75
sg7
g14
sg9
g10
sa(dp414
g6
F0.22
sg7
g16
sg9
g10
sa(dp415
g6
F-73.01
sg7
g18
sg9
g10
sa(dp416
g6
F-0.31
sg7
g20
sg9
g10
sa(dp417
g6
F2.68
sg7
g22
sg9
g10
sa(dp418
g6
F0.13
sg7
g24
sg9
g10
sa(dp419
g6
F-8.06
sg7
g26
sg9
g10
sa(dp420
g6
F-0.7899999999999991
sg7
g28
sg9
g10
sa(dp421
g6
F-8.22
sg7
g30
sg9
g10
sa(dp422
g6
F-1.1
sg7
g32
sg9
g10
sa(dp423
g6
F-1.36
sg7
g34
sg9
g10
sa(dp424
g6
F-6.46
sg7
g36
sg9
g10
sa(dp425
g6
F3.82
sg7
g38
sg9
g10
sa(dp426
g6
F3.21
sg7
g40
sg9
g10
sa(dp427
g6
F-28.97
sg7
g42
sg9
g10
sa(dp428
g6
F-13.23
sg7
g44
sg9
g10
sa(dp429
g6
F-4.79
sg7
g46
sg9
g10
sa(dp430
g6
F50.59
sg7
g48
sg9
g10
sa(dp431
g6
F2.33
sg7
g50
sg9
g10
sa(dp432
g6
F3.38
sg7
g52
sg9
g10
sa(dp433
g6
F-9.27
sg7
g54
sg9
g10
sa(dp434
g6
F-5.85
sg7
g56
sg9
g10
sa(dp435
g6
F64.92
sg7
g58
sg9
g10
sa(dp436
g6
I0
sg7
g60
sg9
g10
sa(dp437
g6
I0
sg7
g62
sg9
g10
sa(dp438
g6
I0
sg7
g64
sg9
g10
sa(dp439
g6
I0
sg7
g66
sg9
g10
sasg7
g67
sa(dp440
g2
I1
sg3
(lp441
(dp442
g6
F-65.63
sg7
g8
sg9
g10
sa(dp443
g6
F3.12
sg7
g12
sg9
g10
sa(dp444
g6
F-0.75
sg7
g14
sg9
g10
sa(dp445
g6
F0.22
sg7
g16
sg9
g10
sa(dp446
g6
F-73.01
sg7
g18
sg9
g10
sa(dp447
g6
F-0.31
sg7
g20
sg9
g10
sa(dp448
g6
F2.68
sg7
g22
sg9
g10
sa(dp449
g6
F-0.13
sg7
g24
sg9
g10
sa(dp450
g6
F-8.65
sg7
g26
sg9
g10
sa(dp451
g6
F24.43
sg7
g28
sg9
g10
sa(dp452
g6
F-8.22
sg7
g30
sg9
g10
sa(dp453
g6
F-1.01
sg7
g32
sg9
g10
sa(dp454
g6
F-1.36
sg7
g34
sg9
g10
sa(dp455
g6
F-18.86
sg7
g36
sg9
g10
sa(dp456
g6
F4.09
sg7
g38
sg9
g10
sa(dp457
g6
F7.96
sg7
g40
sg9
g10
sa(dp458
g6
F16.22
sg7
g42
sg9
g10
sa(dp459
g6
F-11.82
sg7
g44
sg9
g10
sa(dp460
g6
F-4.88
sg7
g46
sg9
g10
sa(dp461
g6
F50.59
sg7
g48
sg9
g10
sa(dp462
g6
F1.71
sg7
g50
sg9
g10
sa(dp463
g6
F4.09
sg7
g52
sg9
g10
sa(dp464
g6
F-10.24
sg7
g54
sg9
g10
sa(dp465
g6
F-5.85
sg7
g56
sg9
g10
sa(dp466
g6
F65.01
sg7
g58
sg9
g10
sa(dp467
g6
I0
sg7
g60
sg9
g10
sa(dp468
g6
I0
sg7
g62
sg9
g10
sa(dp469
g6
I0
sg7
g64
sg9
g10
sa(dp470
g6
I0
sg7
g66
sg9
g10
sasg7
g67
sa(dp471
g2
I1
sg3
(lp472
(dp473
g6
F-65.63
sg7
g8
sg9
g10
sa(dp474
g6
F3.12
sg7
g12
sg9
g10
sa(dp475
g6
F-0.75
sg7
g14
sg9
g10
sa(dp476
g6
F0.22
sg7
g16
sg9
g10
sa(dp477
g6
F-73.1
sg7
g18
sg9
g10
sa(dp478
g6
F-0.31
sg7
g20
sg9
g10
sa(dp479
g6
F2.68
sg7
g22
sg9
g10
sa(dp480
g6
F-0.13
sg7
g24
sg9
g10
sa(dp481
g6
F-8.65
sg7
g26
sg9
g10
sa(dp482
g6
F24.43
sg7
g28
sg9
g10
sa(dp483
g6
F-8.22
sg7
g30
sg9
g10
sa(dp484
g6
F-1.01
sg7
g32
sg9
g10
sa(dp485
g6
F-1.36
sg7
g34
sg9
g10
sa(dp486
g6
F-18.95
sg7
g36
sg9
g10
sa(dp487
g6
F4.09
sg7
g38
sg9
g10
sa(dp488
g6
F7.96
sg7
g40
sg9
g10
sa(dp489
g6
F16.22
sg7
g42
sg9
g10
sa(dp490
g6
F-11.65
sg7
g44
sg9
g10
sa(dp491
g6
F-4.88
sg7
g46
sg9
g10
sa(dp492
g6
F50.68
sg7
g48
sg9
g10
sa(dp493
g6
F1.36
sg7
g50
sg9
g10
sa(dp494
g6
F4.7
sg7
g52
sg9
g10
sa(dp495
g6
F-9.27
sg7
g54
sg9
g10
sa(dp496
g6
F-5.85
sg7
g56
sg9
g10
sa(dp497
g6
F-3.74
sg7
g58
sg9
g10
sa(dp498
g6
I0
sg7
g60
sg9
g10
sa(dp499
g6
I0
sg7
g62
sg9
g10
sa(dp500
g6
I0
sg7
g64
sg9
g10
sa(dp501
g6
I0
sg7
g66
sg9
g10
sasg7
g67
sa(dp502
g2
I1
sg3
(lp503
(dp504
g6
F-65.63
sg7
g8
sg9
g10
sa(dp505
g6
F3.12
sg7
g12
sg9
g10
sa(dp506
g6
F-0.75
sg7
g14
sg9
g10
sa(dp507
g6
F0.22
sg7
g16
sg9
g10
sa(dp508
g6
F-73.1
sg7
g18
sg9
g10
sa(dp509
g6
F-0.22
sg7
g20
sg9
g10
sa(dp510
g6
F2.68
sg7
g22
sg9
g10
sa(dp511
g6
F-0.13
sg7
g24
sg9
g10
sa(dp512
g6
F-8.65
sg7
g26
sg9
g10
sa(dp513
g6
F24.43
sg7
g28
sg9
g10
sa(dp514
g6
F-8.22
sg7
g30
sg9
g10
sa(dp515
g6
F-1.45
sg7
g32
sg9
g10
sa(dp516
g6
F-1.36
sg7
g34
sg9
g10
sa(dp517
g6
F-18.95
sg7
g36
sg9
g10
sa(dp518
g6
F4.18
sg7
g38
sg9
g10
sa(dp519
g6
F7.34
sg7
g40
sg9
g10
sa(dp520
g6
F-0.04
sg7
g42
sg9
g10
sa(dp521
g6
F-8.92
sg7
g44
sg9
g10
sa(dp522
g6
F-4.88
sg7
g46
sg9
g10
sa(dp523
g6
F-3.56
sg7
g48
sg9
g10
sa(dp524
g6
F0.84
sg7
g50
sg9
g10
sa(dp525
g6
F4.53
sg7
g52
sg9
g10
sa(dp526
g6
F-9.1
sg7
g54
sg9
g10
sa(dp527
g6
F-5.85
sg7
g56
sg9
g10
sa(dp528
g6
F-3.82
sg7
g58
sg9
g10
sa(dp529
g6
I0
sg7
g60
sg9
g10
sa(dp530
g6
I0
sg7
g62
sg9
g10
sa(dp531
g6
I0
sg7
g64
sg9
g10
sa(dp532
g6
I0
sg7
g66
sg9
g10
sasg7
g67
sa.