(lp0
(dp1
S'duration'
p2
I1
sS'objectives'
p3
(lp4
(dp5
S'consign'
p6
cnumpy.core.multiarray
scalar
p7
(cnumpy
dtype
p8
(S'f8'
p9
I0
I1
tp10
Rp11
(I3
S'<'
p12
NNNI-1
I-1
I0
tp13
bS'\x00\x00\x00\x00\x00\x80.\xc0'
p14
tp15
Rp16
sS'name'
p17
S'l_elbow_y'
p18
sS'nature'
p19
S'L'
p20
sa(dp21
g6
g7
(g11
S'\x8f\xc2\xf5(\\\x8f\x1a\xc0'
p22
tp23
Rp24
sg17
S'r_hip_y'
p25
sg19
g20
sa(dp26
g6
g7
(g11
S'\xaeG\xe1z\x14\xae\x16\xc0'
p27
tp28
Rp29
sg17
S'r_knee_y'
p30
sg19
g20
sa(dp31
g6
g7
(g11
S'\x9a\x99\x99\x99\x99\x999@'
p32
tp33
Rp34
sg17
S'head_y'
p35
sg19
g20
sa(dp36
g6
g7
(g11
S'\xf6(\\\x8f\xc2\xf5\n\xc0'
p37
tp38
Rp39
sg17
S'head_z'
p40
sg19
g20
sa(dp41
g6
g7
(g11
S'\n\xd7\xa3p=\xca3@'
p42
tp43
Rp44
sg17
S'l_wrist_x'
p45
sg19
g20
sa(dp46
g6
g7
(g11
S'q=\n\xd7\xa3@T@'
p47
tp48
Rp49
sg17
S'r_arm_z'
p50
sg19
g20
sa(dp51
g6
g7
(g11
S'\\\x8f\xc2\xf5(\\\r\xc0'
p52
tp53
Rp54
sg17
S'l_wrist_z'
p55
sg19
g20
sa(dp56
g6
g7
(g11
S'{\x14\xaeG\xe1z8\xc0'
p57
tp58
Rp59
sg17
S'r_ankle_y'
p60
sg19
g20
sa(dp61
g6
g7
(g11
S'\x8f\xc2\xf5(\\\x8f3\xc0'
p62
tp63
Rp64
sg17
S'r_shoulder_x'
p65
sg19
g20
sa(dp66
g6
g7
(g11
S'{\x14\xaeG\xe1:=@'
p67
tp68
Rp69
sg17
S'r_shoulder_y'
p70
sg19
g20
sa(dp71
g6
g7
(g11
S'\\\x8f\xc2\xf5(\\\x10@'
p72
tp73
Rp74
sg17
S'r_hip_z'
p75
sg19
g20
sa(dp76
g6
g7
(g11
S'\\\x8f\xc2\xf5(\\\x10\xc0'
p77
tp78
Rp79
sg17
S'r_hip_x'
p80
sg19
g20
sa(dp81
g6
g7
(g11
S'\xecQ\xb8\x1e\x85\xeb\x14\xc0'
p82
tp83
Rp84
sg17
S'r_elbow_y'
p85
sg19
g20
sa(dp86
g6
g7
(g11
S'R\xb8\x1e\x85\xebQ\x16\xc0'
p87
tp88
Rp89
sg17
S'l_arm_z'
p90
sg19
g20
sa(dp91
g6
g7
(g11
S'\xd7\xa3p=\n\xd7\x1f@'
p92
tp93
Rp94
sg17
S'l_hip_x'
p95
sg19
g20
sa(dp96
g6
g7
(g11
S'\x1f\x85\xebQ\xb8\x1e\x1f\xc0'
p97
tp98
Rp99
sg17
S'l_hip_y'
p100
sg19
g20
sa(dp101
g6
g7
(g11
S'\\\x8f\xc2\xf5(\\\xfb\xbf'
p102
tp103
Rp104
sg17
S'l_hip_z'
p105
sg19
g20
sa(dp106
g6
g7
(g11
S'\xb8\x1e\x85\xebQ\xb8\x04@'
p107
tp108
Rp109
sg17
S'abs_x'
p110
sg19
g20
sa(dp111
g6
g7
(g11
S'\x14\xaeG\xe1z\x14 \xc0'
p112
tp113
Rp114
sg17
S'abs_y'
p115
sg19
g20
sa(dp116
g6
g7
(g11
S'\xf6(\\\x8f\xc2\xf5\x08@'
p117
tp118
Rp119
sg17
S'abs_z'
p120
sg19
g20
sa(dp121
g6
g7
(g11
S'\x9a\x99\x99\x99\x99\x19-\xc0'
p122
tp123
Rp124
sg17
S'l_ankle_y'
p125
sg19
g20
sa(dp126
g6
g7
(g11
S'\x14\xaeG\xe1z\x945\xc0'
p127
tp128
Rp129
sg17
S'bust_y'
p130
sg19
g20
sa(dp131
g6
g7
(g11
S'\xa4p=\n\xd7\xa3\xc0?'
p132
tp133
Rp134
sg17
S'bust_x'
p135
sg19
g20
sa(dp136
g6
g7
(g11
S'\x85\xebQ\xb8\x1e\x85\x13\xc0'
p137
tp138
Rp139
sg17
S'l_knee_y'
p140
sg19
g20
sa(dp141
g6
g7
(g11
S'\x85\xebQ\xb8\x1e%R\xc0'
p142
tp143
Rp144
sg17
S'r_wrist_z'
p145
sg19
g20
sa(dp146
g6
g7
(g11
S'\xcd\xcc\xcc\xcc\xcc\x8c5\xc0'
p147
tp148
Rp149
sg17
S'r_wrist_x'
p150
sg19
g20
sa(dp151
g6
g7
(g11
S'\x00\x00\x00\x00\x00\x80.@'
p152
tp153
Rp154
sg17
S'l_shoulder_x'
p155
sg19
g20
sa(dp156
g6
g7
(g11
S'\x00\x00\x00\x00\x00@?@'
p157
tp158
Rp159
sg17
S'l_shoulder_y'
p160
sg19
g20
sasS'name'
p161
S'toto'
p162
sa(dp163
g2
I1
sg3
(lp164
(dp165
g6
g7
(g11
S'\xaeG\xe1z\x14\xae.\xc0'
p166
tp167
Rp168
sg17
g18
sg19
g20
sa(dp169
g6
g7
(g11
S'\xf6(\\\x8f\xc25E\xc0'
p170
tp171
Rp172
sg17
g25
sg19
g20
sa(dp173
g6
g7
(g11
S'\xd7\xa3p=\nWM@'
p174
tp175
Rp176
sg17
g30
sg19
g20
sa(dp177
g6
g7
(g11
S'\xc2\xf5(\\\x8f\x029@'
p178
tp179
Rp180
sg17
g35
sg19
g20
sa(dp181
g6
g7
(g11
S'\x00\x00\x00\x00\x00\x00\x11\xc0'
p182
tp183
Rp184
sg17
g40
sg19
g20
sa(dp185
g6
g7
(g11
S'\n\xd7\xa3p=\xca3@'
p186
tp187
Rp188
sg17
g45
sg19
g20
sa(dp189
g6
g7
(g11
S'q=\n\xd7\xa3@T@'
p190
tp191
Rp192
sg17
g50
sg19
g20
sa(dp193
g6
g7
(g11
S'\xf6(\\\x8f\xc2\xf5\n\xc0'
p194
tp195
Rp196
sg17
g55
sg19
g20
sa(dp197
g6
g7
(g11
S'\x14\xaeG\xe1z\x94,@'
p198
tp199
Rp200
sg17
g60
sg19
g20
sa(dp201
g6
g7
(g11
S'\x8f\xc2\xf5(\\\x8f3\xc0'
p202
tp203
Rp204
sg17
g65
sg19
g20
sa(dp205
g6
g7
(g11
S'\xb8\x1e\x85\xebQ\xf8<@'
p206
tp207
Rp208
sg17
g70
sg19
g20
sa(dp209
g6
g7
(g11
S'=\n\xd7\xa3p=\xfe?'
p210
tp211
Rp212
sg17
g75
sg19
g20
sa(dp213
g6
g7
(g11
S'\x1f\x85\xebQ\xb8\x1e\xe5?'
p214
tp215
Rp216
sg17
g80
sg19
g20
sa(dp217
g6
g7
(g11
S'H\xe1z\x14\xaeG\x15\xc0'
p218
tp219
Rp220
sg17
g85
sg19
g20
sa(dp221
g6
g7
(g11
S'R\xb8\x1e\x85\xebQ\x16\xc0'
p222
tp223
Rp224
sg17
g90
sg19
g20
sa(dp225
g6
g7
(g11
S'ffffff\x1e@'
p226
tp227
Rp228
sg17
g95
sg19
g20
sa(dp229
g6
g7
(g11
S'\xd7\xa3p=\n\xd7\x1f\xc0'
p230
tp231
Rp232
sg17
g100
sg19
g20
sa(dp233
g6
g7
(g11
S'\\\x8f\xc2\xf5(\\\xfb\xbf'
p234
tp235
Rp236
sg17
g105
sg19
g20
sa(dp237
g6
g7
(g11
S'\xb8\x1e\x85\xebQ\xb8\x04@'
p238
tp239
Rp240
sg17
g110
sg19
g20
sa(dp241
g6
g7
(g11
S'\x8f\xc2\xf5(\\\x8f\x1a\xc0'
p242
tp243
Rp244
sg17
g115
sg19
g20
sa(dp245
g6
g7
(g11
S'\xc3\xf5(\\\x8f\xc2\x0b@'
p246
tp247
Rp248
sg17
g120
sg19
g20
sa(dp249
g6
g7
(g11
S'\x9a\x99\x99\x99\x99\x19-\xc0'
p250
tp251
Rp252
sg17
g125
sg19
g20
sa(dp253
g6
g7
(g11
S'H\xe1z\x14\xae\x874\xc0'
p254
tp255
Rp256
sg17
g130
sg19
g20
sa(dp257
g6
g7
(g11
S'{\x14\xaeG\xe1z\xa4?'
p258
tp259
Rp260
sg17
g135
sg19
g20
sa(dp261
g6
g7
(g11
S'\\\x8f\xc2\xf5(\\\xfb\xbf'
p262
tp263
Rp264
sg17
g140
sg19
g20
sa(dp265
g6
g7
(g11
S'\x85\xebQ\xb8\x1e%R\xc0'
p266
tp267
Rp268
sg17
g145
sg19
g20
sa(dp269
g6
g7
(g11
S'\xcd\xcc\xcc\xcc\xcc\x8c5\xc0'
p270
tp271
Rp272
sg17
g150
sg19
g20
sa(dp273
g6
g7
(g11
S'\xaeG\xe1z\x14\xae.@'
p274
tp275
Rp276
sg17
g155
sg19
g20
sa(dp277
g6
g7
(g11
S'\xa4p=\n\xd7\xa3>@'
p278
tp279
Rp280
sg17
g160
sg19
g20
sasg161
g162
sa(dp281
g2
I1
sg3
(lp282
(dp283
g6
g7
(g11
S'\xaeG\xe1z\x14\xae.\xc0'
p284
tp285
Rp286
sg17
g18
sg19
g20
sa(dp287
g6
g7
(g11
S'\xe1z\x14\xaeG\xb1P\xc0'
p288
tp289
Rp290
sg17
g25
sg19
g20
sa(dp291
g6
g7
(g11
S'\x1f\x85\xebQ\xb8N[@'
p292
tp293
Rp294
sg17
g30
sg19
g20
sa(dp295
g6
g7
(g11
S'\xc2\xf5(\\\x8f\x029@'
p296
tp297
Rp298
sg17
g35
sg19
g20
sa(dp299
g6
g7
(g11
S'333333\x12\xc0'
p300
tp301
Rp302
sg17
g40
sg19
g20
sa(dp303
g6
g7
(g11
S'\x00\x00\x00\x00\x00\x803@'
p304
tp305
Rp306
sg17
g45
sg19
g20
sa(dp307
g6
g7
(g11
S'{\x14\xaeG\xe1:T@'
p308
tp309
Rp310
sg17
g50
sg19
g20
sa(dp311
g6
g7
(g11
S'\xf6(\\\x8f\xc2\xf5\n\xc0'
p312
tp313
Rp314
sg17
g55
sg19
g20
sa(dp315
g6
g7
(g11
S'\xecQ\xb8\x1e\x85\xeb,@'
p316
tp317
Rp318
sg17
g60
sg19
g20
sa(dp319
g6
g7
(g11
S'\xb8\x1e\x85\xebQx3\xc0'
p320
tp321
Rp322
sg17
g65
sg19
g20
sa(dp323
g6
g7
(g11
S'\xe1z\x14\xaeG\xe1<@'
p324
tp325
Rp326
sg17
g70
sg19
g20
sa(dp327
g6
g7
(g11
S'333333\x01@'
p328
tp329
Rp330
sg17
g75
sg19
g20
sa(dp331
g6
g7
(g11
S'\xa4p=\n\xd7\xa3\xf8?'
p332
tp333
Rp334
sg17
g80
sg19
g20
sa(dp335
g6
g7
(g11
S'H\xe1z\x14\xaeG\x15\xc0'
p336
tp337
Rp338
sg17
g85
sg19
g20
sa(dp339
g6
g7
(g11
S'R\xb8\x1e\x85\xebQ\x16\xc0'
p340
tp341
Rp342
sg17
g90
sg19
g20
sa(dp343
g6
g7
(g11
S'\x14\xaeG\xe1z\x14\x1e@'
p344
tp345
Rp346
sg17
g95
sg19
g20
sa(dp347
g6
g7
(g11
S'\xd7\xa3p=\n\xd7\x1f\xc0'
p348
tp349
Rp350
sg17
g100
sg19
g20
sa(dp351
g6
g7
(g11
S'\x14\xaeG\xe1z\x14\xfa\xbf'
p352
tp353
Rp354
sg17
g105
sg19
g20
sa(dp355
g6
g7
(g11
S'\xb8\x1e\x85\xebQ\xb8\x04@'
p356
tp357
Rp358
sg17
g110
sg19
g20
sa(dp359
g6
g7
(g11
S'\x8f\xc2\xf5(\\\x8f\x1a\xc0'
p360
tp361
Rp362
sg17
g115
sg19
g20
sa(dp363
g6
g7
(g11
S'\n\xd7\xa3p=\n\x0b@'
p364
tp365
Rp366
sg17
g120
sg19
g20
sa(dp367
g6
g7
(g11
S'\x9a\x99\x99\x99\x99\x19-\xc0'
p368
tp369
Rp370
sg17
g125
sg19
g20
sa(dp371
g6
g7
(g11
S'H\xe1z\x14\xae\x874\xc0'
p372
tp373
Rp374
sg17
g130
sg19
g20
sa(dp375
g6
g7
(g11
S'{\x14\xaeG\xe1z\xa4?'
p376
tp377
Rp378
sg17
g135
sg19
g20
sa(dp379
g6
g7
(g11
S'\\\x8f\xc2\xf5(\\\xfb\xbf'
p380
tp381
Rp382
sg17
g140
sg19
g20
sa(dp383
g6
g7
(g11
S'\xc3\xf5(\\\x8f\x12R\xc0'
p384
tp385
Rp386
sg17
g145
sg19
g20
sa(dp387
g6
g7
(g11
S'\xcd\xcc\xcc\xcc\xcc\x8c5\xc0'
p388
tp389
Rp390
sg17
g150
sg19
g20
sa(dp391
g6
g7
(g11
S'\xaeG\xe1z\x14\xae.@'
p392
tp393
Rp394
sg17
g155
sg19
g20
sa(dp395
g6
g7
(g11
S'\xa4p=\n\xd7\xa3>@'
p396
tp397
Rp398
sg17
g160
sg19
g20
sasg161
g162
sa(dp399
g2
I1
sg3
(lp400
(dp401
g6
g7
(g11
S'\xaeG\xe1z\x14\xae.\xc0'
p402
tp403
Rp404
sg17
g18
sg19
g20
sa(dp405
g6
g7
(g11
S'q=\n\xd7\xa3pQ\xc0'
p406
tp407
Rp408
sg17
g25
sg19
g20
sa(dp409
g6
g7
(g11
S'{\x14\xaeG\xe1j]@'
p410
tp411
Rp412
sg17
g30
sg19
g20
sa(dp413
g6
g7
(g11
S'\xc2\xf5(\\\x8f\x029@'
p414
tp415
Rp416
sg17
g35
sg19
g20
sa(dp417
g6
g7
(g11
S'333333\x12\xc0'
p418
tp419
Rp420
sg17
g40
sg19
g20
sa(dp421
g6
g7
(g11
S'\n\xd7\xa3p=\xca3@'
p422
tp423
Rp424
sg17
g45
sg19
g20
sa(dp425
g6
g7
(g11
S'{\x14\xaeG\xe1:T@'
p426
tp427
Rp428
sg17
g50
sg19
g20
sa(dp429
g6
g7
(g11
S'\xf6(\\\x8f\xc2\xf5\n\xc0'
p430
tp431
Rp432
sg17
g55
sg19
g20
sa(dp433
g6
g7
(g11
S'\xc3\xf5(\\\x8f\xc2=@'
p434
tp435
Rp436
sg17
g60
sg19
g20
sa(dp437
g6
g7
(g11
S'\xb8\x1e\x85\xebQx3\xc0'
p438
tp439
Rp440
sg17
g65
sg19
g20
sa(dp441
g6
g7
(g11
S'\xb8\x1e\x85\xebQ\xf8<@'
p442
tp443
Rp444
sg17
g70
sg19
g20
sa(dp445
g6
g7
(g11
S'\x14\xaeG\xe1z\x14\x04@'
p446
tp447
Rp448
sg17
g75
sg19
g20
sa(dp449
g6
g7
(g11
S'\xa4p=\n\xd7\xa3\xc0?'
p450
tp451
Rp452
sg17
g80
sg19
g20
sa(dp453
g6
g7
(g11
S'H\xe1z\x14\xaeG\x15\xc0'
p454
tp455
Rp456
sg17
g85
sg19
g20
sa(dp457
g6
g7
(g11
S'R\xb8\x1e\x85\xebQ\x16\xc0'
p458
tp459
Rp460
sg17
g90
sg19
g20
sa(dp461
g6
g7
(g11
S'\xb8\x1e\x85\xebQ\xb8\x1d@'
p462
tp463
Rp464
sg17
g95
sg19
g20
sa(dp465
g6
g7
(g11
S'\xd7\xa3p=\n\xd7\x1f\xc0'
p466
tp467
Rp468
sg17
g100
sg19
g20
sa(dp469
g6
g7
(g11
S'\\\x8f\xc2\xf5(\\\xfb\xbf'
p470
tp471
Rp472
sg17
g105
sg19
g20
sa(dp473
g6
g7
(g11
S'\xb8\x1e\x85\xebQ\xb8\x04@'
p474
tp475
Rp476
sg17
g110
sg19
g20
sa(dp477
g6
g7
(g11
S'\xecQ\xb8\x1e\x85\xeb\x1a\xc0'
p478
tp479
Rp480
sg17
g115
sg19
g20
sa(dp481
g6
g7
(g11
S'\n\xd7\xa3p=\n\x0b@'
p482
tp483
Rp484
sg17
g120
sg19
g20
sa(dp485
g6
g7
(g11
S'\x9a\x99\x99\x99\x99\x19-\xc0'
p486
tp487
Rp488
sg17
g125
sg19
g20
sa(dp489
g6
g7
(g11
S'H\xe1z\x14\xae\x874\xc0'
p490
tp491
Rp492
sg17
g130
sg19
g20
sa(dp493
g6
g7
(g11
S'{\x14\xaeG\xe1z\xa4\xbf'
p494
tp495
Rp496
sg17
g135
sg19
g20
sa(dp497
g6
g7
(g11
S'\\\x8f\xc2\xf5(\\\xfb\xbf'
p498
tp499
Rp500
sg17
g140
sg19
g20
sa(dp501
g6
g7
(g11
S'\x8f\xc2\xf5(\\\xffQ\xc0'
p502
tp503
Rp504
sg17
g145
sg19
g20
sa(dp505
g6
g7
(g11
S'\xcd\xcc\xcc\xcc\xcc\x8c5\xc0'
p506
tp507
Rp508
sg17
g150
sg19
g20
sa(dp509
g6
g7
(g11
S'\xaeG\xe1z\x14\xae.@'
p510
tp511
Rp512
sg17
g155
sg19
g20
sa(dp513
g6
g7
(g11
S'\xa4p=\n\xd7\xa3>@'
p514
tp515
Rp516
sg17
g160
sg19
g20
sasg161
g162
sa(dp517
g2
I1
sg3
(lp518
(dp519
g6
g7
(g11
S'R\xb8\x1e\x85\xebQ.\xc0'
p520
tp521
Rp522
sg17
g18
sg19
g20
sa(dp523
g6
g7
(g11
S'\x8f\xc2\xf5(\\OF\xc0'
p524
tp525
Rp526
sg17
g25
sg19
g20
sa(dp527
g6
g7
(g11
S'\x8f\xc2\xf5(\\\xef\\@'
p528
tp529
Rp530
sg17
g30
sg19
g20
sa(dp531
g6
g7
(g11
S'\x9a\x99\x99\x99\x99\x999@'
p532
tp533
Rp534
sg17
g35
sg19
g20
sa(dp535
g6
g7
(g11
S'\xb8\x1e\x85\xebQ\xb8\x15\xc0'
p536
tp537
Rp538
sg17
g40
sg19
g20
sa(dp539
g6
g7
(g11
S'\n\xd7\xa3p=\xca3@'
p540
tp541
Rp542
sg17
g45
sg19
g20
sa(dp543
g6
g7
(g11
S'q=\n\xd7\xa3@T@'
p544
tp545
Rp546
sg17
g50
sg19
g20
sa(dp547
g6
g7
(g11
S'\\\x8f\xc2\xf5(\\\r\xc0'
p548
tp549
Rp550
sg17
g55
sg19
g20
sa(dp551
g6
g7
(g11
S'\n\xd7\xa3p=\x8a1@'
p552
tp553
Rp554
sg17
g60
sg19
g20
sa(dp555
g6
g7
(g11
S'\xe1z\x14\xaeGa3\xc0'
p556
tp557
Rp558
sg17
g65
sg19
g20
sa(dp559
g6
g7
(g11
S'\xa4p=\n\xd7#=@'
p560
tp561
Rp562
sg17
g70
sg19
g20
sa(dp563
g6
g7
(g11
S'\x8f\xc2\xf5(\\\x8f\x00@'
p564
tp565
Rp566
sg17
g75
sg19
g20
sa(dp567
g6
g7
(g11
S'\x1f\x85\xebQ\xb8\x1e\x12\xc0'
p568
tp569
Rp570
sg17
g80
sg19
g20
sa(dp571
g6
g7
(g11
S'\xaeG\xe1z\x14\xae\x16\xc0'
p572
tp573
Rp574
sg17
g85
sg19
g20
sa(dp575
g6
g7
(g11
S'\xf6(\\\x8f\xc2\xf5\x15\xc0'
p576
tp577
Rp578
sg17
g90
sg19
g20
sa(dp579
g6
g7
(g11
S')\\\x8f\xc2\xf5(\x06@'
p580
tp581
Rp582
sg17
g95
sg19
g20
sa(dp583
g6
g7
(g11
S'R\xb8\x1e\x85\xebQ\xf4?'
p584
tp585
Rp586
sg17
g100
sg19
g20
sa(dp587
g6
g7
(g11
S'\n\xd7\xa3p=\x8a%\xc0'
p588
tp589
Rp590
sg17
g105
sg19
g20
sa(dp591
g6
g7
(g11
S'\xb8\x1e\x85\xebQ\xb8\x10@'
p592
tp593
Rp594
sg17
g110
sg19
g20
sa(dp595
g6
g7
(g11
S'\xc3\xf5(\\\x8f\xc2\x1e\xc0'
p596
tp597
Rp598
sg17
g115
sg19
g20
sa(dp599
g6
g7
(g11
S'\xe1z\x14\xaeGa3\xc0'
p600
tp601
Rp602
sg17
g120
sg19
g20
sa(dp603
g6
g7
(g11
S'\x9a\x99\x99\x99\x99\x19-\xc0'
p604
tp605
Rp606
sg17
g125
sg19
g20
sa(dp607
g6
g7
(g11
S'\xcd\xcc\xcc\xcc\xcc\xcc-\xc0'
p608
tp609
Rp610
sg17
g130
sg19
g20
sa(dp611
g6
g7
(g11
S'\x85\xebQ\xb8\x1e\x05"\xc0'
p612
tp613
Rp614
sg17
g135
sg19
g20
sa(dp615
g6
g7
(g11
S'\x85\xebQ\xb8\x1e\x85\x13\xc0'
p616
tp617
Rp618
sg17
g140
sg19
g20
sa(dp619
g6
g7
(g11
S'\n\xd7\xa3p=\xdaQ\xc0'
p620
tp621
Rp622
sg17
g145
sg19
g20
sa(dp623
g6
g7
(g11
S'\xcd\xcc\xcc\xcc\xcc\x8c5\xc0'
p624
tp625
Rp626
sg17
g150
sg19
g20
sa(dp627
g6
g7
(g11
S')\\\x8f\xc2\xf5(.@'
p628
tp629
Rp630
sg17
g155
sg19
g20
sa(dp631
g6
g7
(g11
S'\xa4p=\n\xd7\xa3>@'
p632
tp633
Rp634
sg17
g160
sg19
g20
sasg161
g162
sa(dp635
g2
I1
sg3
(lp636
(dp637
g6
g7
(g11
S'fffff\xe6"\xc0'
p638
tp639
Rp640
sg17
g18
sg19
g20
sa(dp641
g6
g7
(g11
S'\n\xd7\xa3p=\x8a1\xc0'
p642
tp643
Rp644
sg17
g25
sg19
g20
sa(dp645
g6
g7
(g11
S'=\n\xd7\xa3p\xfdY@'
p646
tp647
Rp648
sg17
g30
sg19
g20
sa(dp649
g6
g7
(g11
S'\xa4p=\n\xd7\xe39@'
p650
tp651
Rp652
sg17
g35
sg19
g20
sa(dp653
g6
g7
(g11
S'\xe1z\x14\xaeG\xe1!\xc0'
p654
tp655
Rp656
sg17
g40
sg19
g20
sa(dp657
g6
g7
(g11
S'\n\xd7\xa3p=\xca3@'
p658
tp659
Rp660
sg17
g45
sg19
g20
sa(dp661
g6
g7
(g11
S'{\x14\xaeG\xe1:T@'
p662
tp663
Rp664
sg17
g50
sg19
g20
sa(dp665
g6
g7
(g11
S'\\\x8f\xc2\xf5(\\\r\xc0'
p666
tp667
Rp668
sg17
g55
sg19
g20
sa(dp669
g6
g7
(g11
S'\x9a\x99\x99\x99\x99\x99#@'
p670
tp671
Rp672
sg17
g60
sg19
g20
sa(dp673
g6
g7
(g11
S'\xcd\xcc\xcc\xcc\xcc\x8c6\xc0'
p674
tp675
Rp676
sg17
g65
sg19
g20
sa(dp677
g6
g7
(g11
S'{\x14\xaeG\xe1:C@'
p678
tp679
Rp680
sg17
g70
sg19
g20
sa(dp681
g6
g7
(g11
S'\x8f\xc2\xf5(\\\x0f&\xc0'
p682
tp683
Rp684
sg17
g75
sg19
g20
sa(dp685
g6
g7
(g11
S'ffffff\n\xc0'
p686
tp687
Rp688
sg17
g80
sg19
g20
sa(dp689
g6
g7
(g11
S'\xf6(\\\x8f\xc2\xf5\x15\xc0'
p690
tp691
Rp692
sg17
g85
sg19
g20
sa(dp693
g6
g7
(g11
S'\xf6(\\\x8f\xc2\xf5\x15\xc0'
p694
tp695
Rp696
sg17
g90
sg19
g20
sa(dp697
g6
g7
(g11
S'\x1f\x85\xebQ\xb8\x9e @'
p698
tp699
Rp700
sg17
g95
sg19
g20
sa(dp701
g6
g7
(g11
S'R\xb8\x1e\x85\xebQ!@'
p702
tp703
Rp704
sg17
g100
sg19
g20
sa(dp705
g6
g7
(g11
S'\n\xd7\xa3p=\n\x11\xc0'
p706
tp707
Rp708
sg17
g105
sg19
g20
sa(dp709
g6
g7
(g11
S'\n\xd7\xa3p=\n,@'
p710
tp711
Rp712
sg17
g110
sg19
g20
sa(dp713
g6
g7
(g11
S'\xc3\xf5(\\\x8f\xc2\x1e\xc0'
p714
tp715
Rp716
sg17
g115
sg19
g20
sa(dp717
g6
g7
(g11
S'{\x14\xaeG\xe1:=\xc0'
p718
tp719
Rp720
sg17
g120
sg19
g20
sa(dp721
g6
g7
(g11
S'\x9a\x99\x99\x99\x99\x19-\xc0'
p722
tp723
Rp724
sg17
g125
sg19
g20
sa(dp725
g6
g7
(g11
S'ffffff,\xc0'
p726
tp727
Rp728
sg17
g130
sg19
g20
sa(dp729
g6
g7
(g11
S'=\n\xd7\xa3p=&\xc0'
p730
tp731
Rp732
sg17
g135
sg19
g20
sa(dp733
g6
g7
(g11
S'\x85\xebQ\xb8\x1e\x85\x13\xc0'
p734
tp735
Rp736
sg17
g140
sg19
g20
sa(dp737
g6
g7
(g11
S'\x85\xebQ\xb8\x1e%R\xc0'
p738
tp739
Rp740
sg17
g145
sg19
g20
sa(dp741
g6
g7
(g11
S'\xc3\xf5(\\\x8fB5\xc0'
p742
tp743
Rp744
sg17
g150
sg19
g20
sa(dp745
g6
g7
(g11
S'\xb8\x1e\x85\xebQ\xb8"@'
p746
tp747
Rp748
sg17
g155
sg19
g20
sa(dp749
g6
g7
(g11
S'\x8f\xc2\xf5(\\\xcf6@'
p750
tp751
Rp752
sg17
g160
sg19
g20
sasg161
g162
sa(dp753
g2
I1
sg3
(lp754
(dp755
g6
g7
(g11
S'H\xe1z\x14\xaeG\x15\xc0'
p756
tp757
Rp758
sg17
g18
sg19
g20
sa(dp759
g6
g7
(g11
S'\x14\xaeG\xe1z\x14\x04\xc0'
p760
tp761
Rp762
sg17
g25
sg19
g20
sa(dp763
g6
g7
(g11
S'H\xe1z\x14\xae\xf7W@'
p764
tp765
Rp766
sg17
g30
sg19
g20
sa(dp767
g6
g7
(g11
S'\x90\xc2\xf5(\\O9@'
p768
tp769
Rp770
sg17
g35
sg19
g20
sa(dp771
g6
g7
(g11
S")\\\x8f\xc2\xf5('\xc0"
p772
tp773
Rp774
sg17
g40
sg19
g20
sa(dp775
g6
g7
(g11
S'\x00\x00\x00\x00\x00\x803@'
p776
tp777
Rp778
sg17
g45
sg19
g20
sa(dp779
g6
g7
(g11
S'q=\n\xd7\xa3@T@'
p780
tp781
Rp782
sg17
g50
sg19
g20
sa(dp783
g6
g7
(g11
S'\\\x8f\xc2\xf5(\\\r\xc0'
p784
tp785
Rp786
sg17
g55
sg19
g20
sa(dp787
g6
g7
(g11
S'\xb8\x1e\x85\xebQ\xb8"@'
p788
tp789
Rp790
sg17
g60
sg19
g20
sa(dp791
g6
g7
(g11
S'\xcd\xcc\xcc\xcc\xccL3\xc0'
p792
tp793
Rp794
sg17
g65
sg19
g20
sa(dp795
g6
g7
(g11
S'\x9a\x99\x99\x99\x99YF@'
p796
tp797
Rp798
sg17
g70
sg19
g20
sa(dp799
g6
g7
(g11
S'\xf6(\\\x8f\xc2u*\xc0'
p800
tp801
Rp802
sg17
g75
sg19
g20
sa(dp803
g6
g7
(g11
S'R\xb8\x1e\x85\xebQ\x16\xc0'
p804
tp805
Rp806
sg17
g80
sg19
g20
sa(dp807
g6
g7
(g11
S')\\\x8f\xc2\xf5(\x06@'
p808
tp809
Rp810
sg17
g85
sg19
g20
sa(dp811
g6
g7
(g11
S'R\xb8\x1e\x85\xebQ\x16\xc0'
p812
tp813
Rp814
sg17
g90
sg19
g20
sa(dp815
g6
g7
(g11
S'\xecQ\xb8\x1e\x85k&@'
p816
tp817
Rp818
sg17
g95
sg19
g20
sa(dp819
g6
g7
(g11
S'=\n\xd7\xa3p=&@'
p820
tp821
Rp822
sg17
g100
sg19
g20
sa(dp823
g6
g7
(g11
S'\xa4p=\n\xd7\xe31@'
p824
tp825
Rp826
sg17
g105
sg19
g20
sa(dp827
g6
g7
(g11
S'H\xe1z\x14\xaeG-@'
p828
tp829
Rp830
sg17
g110
sg19
g20
sa(dp831
g6
g7
(g11
S'\xc3\xf5(\\\x8f\xc2\x1e\xc0'
p832
tp833
Rp834
sg17
g115
sg19
g20
sa(dp835
g6
g7
(g11
S'{\x14\xaeG\xe1\xda@\xc0'
p836
tp837
Rp838
sg17
g120
sg19
g20
sa(dp839
g6
g7
(g11
S'\x9a\x99\x99\x99\x99\x19-\xc0'
p840
tp841
Rp842
sg17
g125
sg19
g20
sa(dp843
g6
g7
(g11
S'\\\x8f\xc2\xf5(\xdc+\xc0'
p844
tp845
Rp846
sg17
g130
sg19
g20
sa(dp847
g6
g7
(g11
S'\\\x8f\xc2\xf5(\\(\xc0'
p848
tp849
Rp850
sg17
g135
sg19
g20
sa(dp851
g6
g7
(g11
S'\xa4p=\n\xd7\xa3\x02@'
p852
tp853
Rp854
sg17
g140
sg19
g20
sa(dp855
g6
g7
(g11
S'\x85\xebQ\xb8\x1e%R\xc0'
p856
tp857
Rp858
sg17
g145
sg19
g20
sa(dp859
g6
g7
(g11
S'\xb8\x1e\x85\xebQ\xf84\xc0'
p860
tp861
Rp862
sg17
g150
sg19
g20
sa(dp863
g6
g7
(g11
S'{\x14\xaeG\xe1z\x0c@'
p864
tp865
Rp866
sg17
g155
sg19
g20
sa(dp867
g6
g7
(g11
S'\xc3\xf5(\\\x8f\x021@'
p868
tp869
Rp870
sg17
g160
sg19
g20
sasg161
g162
sa(dp871
g2
I1
sg3
(lp872
(dp873
g6
g7
(g11
S'\x8f\xc2\xf5(\\\x8f\x14\xc0'
p874
tp875
Rp876
sg17
g18
sg19
g20
sa(dp877
g6
g7
(g11
S'\x8f\xc2\xf5(\\\x8f\x0e\xc0'
p878
tp879
Rp880
sg17
g25
sg19
g20
sa(dp881
g6
g7
(g11
S'33333\xa3W@'
p882
tp883
Rp884
sg17
g30
sg19
g20
sa(dp885
g6
g7
(g11
S'\xc2\xf5(\\\x8f\x029@'
p886
tp887
Rp888
sg17
g35
sg19
g20
sa(dp889
g6
g7
(g11
S'\x8f\xc2\xf5(\\\x8f\x1b\xc0'
p890
tp891
Rp892
sg17
g40
sg19
g20
sa(dp893
g6
g7
(g11
S'\n\xd7\xa3p=\xca3@'
p894
tp895
Rp896
sg17
g45
sg19
g20
sa(dp897
g6
g7
(g11
S'R\xb8\x1e\x85\xeb\x112@'
p898
tp899
Rp900
sg17
g50
sg19
g20
sa(dp901
g6
g7
(g11
S'\\\x8f\xc2\xf5(\\\r\xc0'
p902
tp903
Rp904
sg17
g55
sg19
g20
sa(dp905
g6
g7
(g11
S'333333"@'
p906
tp907
Rp908
sg17
g60
sg19
g20
sa(dp909
g6
g7
(g11
S'{\x14\xaeG\xe1z$\xc0'
p910
tp911
Rp912
sg17
g65
sg19
g20
sa(dp913
g6
g7
(g11
S'\x14\xaeG\xe1z\x94C@'
p914
tp915
Rp916
sg17
g70
sg19
g20
sa(dp917
g6
g7
(g11
S'{\x14\xaeG\xe1z$\xc0'
p918
tp919
Rp920
sg17
g75
sg19
g20
sa(dp921
g6
g7
(g11
S'\xa4p=\n\xd7\xa3\x15\xc0'
p922
tp923
Rp924
sg17
g80
sg19
g20
sa(dp925
g6
g7
(g11
S'\n\xd7\xa3p=\n\x0b\xc0'
p926
tp927
Rp928
sg17
g85
sg19
g20
sa(dp929
g6
g7
(g11
S'R\xb8\x1e\x85\xebQ\x16\xc0'
p930
tp931
Rp932
sg17
g90
sg19
g20
sa(dp933
g6
g7
(g11
S'\x85\xebQ\xb8\x1e\x05%@'
p934
tp935
Rp936
sg17
g95
sg19
g20
sa(dp937
g6
g7
(g11
S'\xecQ\xb8\x1e\x85k&@'
p938
tp939
Rp940
sg17
g100
sg19
g20
sa(dp941
g6
g7
(g11
S'\x14\xaeG\xe1zT2@'
p942
tp943
Rp944
sg17
g105
sg19
g20
sa(dp945
g6
g7
(g11
S'=\n\xd7\xa3p\xbd,@'
p946
tp947
Rp948
sg17
g110
sg19
g20
sa(dp949
g6
g7
(g11
S'ffffff\x11\xc0'
p950
tp951
Rp952
sg17
g115
sg19
g20
sa(dp953
g6
g7
(g11
S'333333@\xc0'
p954
tp955
Rp956
sg17
g120
sg19
g20
sa(dp957
g6
g7
(g11
S'\x9a\x99\x99\x99\x99\x19-\xc0'
p958
tp959
Rp960
sg17
g125
sg19
g20
sa(dp961
g6
g7
(g11
S'R\xb8\x1e\x85\xeb\xd1*\xc0'
p962
tp963
Rp964
sg17
g130
sg19
g20
sa(dp965
g6
g7
(g11
S'\x85\xebQ\xb8\x1e\x85(\xc0'
p966
tp967
Rp968
sg17
g135
sg19
g20
sa(dp969
g6
g7
(g11
S'\xe1z\x14\xaeG\xe1\x06@'
p970
tp971
Rp972
sg17
g140
sg19
g20
sa(dp973
g6
g7
(g11
S'\x8f\xc2\xf5(\\\xcfL\xc0'
p974
tp975
Rp976
sg17
g145
sg19
g20
sa(dp977
g6
g7
(g11
S'\xecQ\xb8\x1e\x85\xab4\xc0'
p978
tp979
Rp980
sg17
g150
sg19
g20
sa(dp981
g6
g7
(g11
S'333333\r@'
p982
tp983
Rp984
sg17
g155
sg19
g20
sa(dp985
g6
g7
(g11
S'R\xb8\x1e\x85\xeb\x910@'
p986
tp987
Rp988
sg17
g160
sg19
g20
sasg161
g162
sa(dp989
g2
I1
sg3
(lp990
(dp991
g6
g7
(g11
S'333333\x14\xc0'
p992
tp993
Rp994
sg17
g18
sg19
g20
sa(dp995
g6
g7
(g11
S'\\\x8f\xc2\xf5(\\\x10\xc0'
p996
tp997
Rp998
sg17
g25
sg19
g20
sa(dp999
g6
g7
(g11
S'fffffvW@'
p1000
tp1001
Rp1002
sg17
g30
sg19
g20
sa(dp1003
g6
g7
(g11
S'\xc2\xf5(\\\x8f\x029@'
p1004
tp1005
Rp1006
sg17
g35
sg19
g20
sa(dp1007
g6
g7
(g11
S'\xb8\x1e\x85\xebQ\xb8\x1c\xc0'
p1008
tp1009
Rp1010
sg17
g40
sg19
g20
sa(dp1011
g6
g7
(g11
S'\n\xd7\xa3p=\xca3@'
p1012
tp1013
Rp1014
sg17
g45
sg19
g20
sa(dp1015
g6
g7
(g11
S'\xd7\xa3p=\n\xd70@'
p1016
tp1017
Rp1018
sg17
g50
sg19
g20
sa(dp1019
g6
g7
(g11
S'\\\x8f\xc2\xf5(\\\r\xc0'
p1020
tp1021
Rp1022
sg17
g55
sg19
g20
sa(dp1023
g6
g7
(g11
S'333333"@'
p1024
tp1025
Rp1026
sg17
g60
sg19
g20
sa(dp1027
g6
g7
(g11
S'\xc3\xf5(\\\x8f\xc2&\xc0'
p1028
tp1029
Rp1030
sg17
g65
sg19
g20
sa(dp1031
g6
g7
(g11
S'q=\n\xd7\xa3\xd0L@'
p1032
tp1033
Rp1034
sg17
g70
sg19
g20
sa(dp1035
g6
g7
(g11
S'\xc3\xf5(\\\x8fB#\xc0'
p1036
tp1037
Rp1038
sg17
g75
sg19
g20
sa(dp1039
g6
g7
(g11
S'\x8f\xc2\xf5(\\\x8f\x14\xc0'
p1040
tp1041
Rp1042
sg17
g80
sg19
g20
sa(dp1043
g6
g7
(g11
S'\x9a\x99\x99\x99\x99\xb9D\xc0'
p1044
tp1045
Rp1046
sg17
g85
sg19
g20
sa(dp1047
g6
g7
(g11
S'R\xb8\x1e\x85\xebQ\x16\xc0'
p1048
tp1049
Rp1050
sg17
g90
sg19
g20
sa(dp1051
g6
g7
(g11
S'\x85\xebQ\xb8\x1e\x05%@'
p1052
tp1053
Rp1054
sg17
g95
sg19
g20
sa(dp1055
g6
g7
(g11
S'\xecQ\xb8\x1e\x85k&@'
p1056
tp1057
Rp1058
sg17
g100
sg19
g20
sa(dp1059
g6
g7
(g11
S'\x85\xebQ\xb8\x1e\xc52@'
p1060
tp1061
Rp1062
sg17
g105
sg19
g20
sa(dp1063
g6
g7
(g11
S'=\n\xd7\xa3p\xbd,@'
p1064
tp1065
Rp1066
sg17
g110
sg19
g20
sa(dp1067
g6
g7
(g11
S'ffffff\x11\xc0'
p1068
tp1069
Rp1070
sg17
g115
sg19
g20
sa(dp1071
g6
g7
(g11
S'\xf6(\\\x8f\xc2\xf5?\xc0'
p1072
tp1073
Rp1074
sg17
g120
sg19
g20
sa(dp1075
g6
g7
(g11
S'\x9a\x99\x99\x99\x99\x19-\xc0'
p1076
tp1077
Rp1078
sg17
g125
sg19
g20
sa(dp1079
g6
g7
(g11
S'\xf6(\\\x8f\xc2u*\xc0'
p1080
tp1081
Rp1082
sg17
g130
sg19
g20
sa(dp1083
g6
g7
(g11
S'33333\xb3(\xc0'
p1084
tp1085
Rp1086
sg17
g135
sg19
g20
sa(dp1087
g6
g7
(g11
S'\xaeG\xe1z\x14\xae\t@'
p1088
tp1089
Rp1090
sg17
g140
sg19
g20
sa(dp1091
g6
g7
(g11
S'\xb8\x1e\x85\xebQ\x18G\xc0'
p1092
tp1093
Rp1094
sg17
g145
sg19
g20
sa(dp1095
g6
g7
(g11
S'333333\xc3?'
p1096
tp1097
Rp1098
sg17
g150
sg19
g20
sa(dp1099
g6
g7
(g11
S'\xecQ\xb8\x1e\x85\xeb\r@'
p1100
tp1101
Rp1102
sg17
g155
sg19
g20
sa(dp1103
g6
g7
(g11
S'\xb8\x1e\x85\xebQ80@'
p1104
tp1105
Rp1106
sg17
g160
sg19
g20
sasg161
g162
sa(dp1107
g2
I1
sg3
(lp1108
(dp1109
g6
g7
(g11
S'\xe1z\x14\xaeG\xe1\x13\xc0'
p1110
tp1111
Rp1112
sg17
g18
sg19
g20
sa(dp1113
g6
g7
(g11
S'ffffff\x11\xc0'
p1114
tp1115
Rp1116
sg17
g25
sg19
g20
sa(dp1117
g6
g7
(g11
S'\n\xd7\xa3p=ZW@'
p1118
tp1119
Rp1120
sg17
g30
sg19
g20
sa(dp1121
g6
g7
(g11
S'\xc2\xf5(\\\x8f\x029@'
p1122
tp1123
Rp1124
sg17
g35
sg19
g20
sa(dp1125
g6
g7
(g11
S'\xecQ\xb8\x1e\x85\xeb\x1d\xc0'
p1126
tp1127
Rp1128
sg17
g40
sg19
g20
sa(dp1129
g6
g7
(g11
S'\x00\x00\x00\x00\x00\x803@'
p1130
tp1131
Rp1132
sg17
g45
sg19
g20
sa(dp1133
g6
g7
(g11
S'\x14\xaeG\xe1z\x94G@'
p1134
tp1135
Rp1136
sg17
g50
sg19
g20
sa(dp1137
g6
g7
(g11
S'\\\x8f\xc2\xf5(\\\r\xc0'
p1138
tp1139
Rp1140
sg17
g55
sg19
g20
sa(dp1141
g6
g7
(g11
S'333333"@'
p1142
tp1143
Rp1144
sg17
g60
sg19
g20
sa(dp1145
g6
g7
(g11
S'\x1f\x85\xebQ\xb8\x1e\x12\xc0'
p1146
tp1147
Rp1148
sg17
g65
sg19
g20
sa(dp1149
g6
g7
(g11
S'33333\xd3I@'
p1150
tp1151
Rp1152
sg17
g70
sg19
g20
sa(dp1153
g6
g7
(g11
S'333333"\xc0'
p1154
tp1155
Rp1156
sg17
g75
sg19
g20
sa(dp1157
g6
g7
(g11
S'\x85\xebQ\xb8\x1e\x85\x13\xc0'
p1158
tp1159
Rp1160
sg17
g80
sg19
g20
sa(dp1161
g6
g7
(g11
S'q=\n\xd7\xa3pJ\xc0'
p1162
tp1163
Rp1164
sg17
g85
sg19
g20
sa(dp1165
g6
g7
(g11
S'R\xb8\x1e\x85\xebQ\x16\xc0'
p1166
tp1167
Rp1168
sg17
g90
sg19
g20
sa(dp1169
g6
g7
(g11
S'\x85\xebQ\xb8\x1e\x05%@'
p1170
tp1171
Rp1172
sg17
g95
sg19
g20
sa(dp1173
g6
g7
(g11
S'=\n\xd7\xa3p=&@'
p1174
tp1175
Rp1176
sg17
g100
sg19
g20
sa(dp1177
g6
g7
(g11
S'\x1f\x85\xebQ\xb8\x1e3@'
p1178
tp1179
Rp1180
sg17
g105
sg19
g20
sa(dp1181
g6
g7
(g11
S'=\n\xd7\xa3p\xbd,@'
p1182
tp1183
Rp1184
sg17
g110
sg19
g20
sa(dp1185
g6
g7
(g11
S'ffffff\x11\xc0'
p1186
tp1187
Rp1188
sg17
g115
sg19
g20
sa(dp1189
g6
g7
(g11
S'q=\n\xd7\xa3\xb0?\xc0'
p1190
tp1191
Rp1192
sg17
g120
sg19
g20
sa(dp1193
g6
g7
(g11
S'\x9a\x99\x99\x99\x99\x19-\xc0'
p1194
tp1195
Rp1196
sg17
g125
sg19
g20
sa(dp1197
g6
g7
(g11
S'\xf6(\\\x8f\xc2u*\xc0'
p1198
tp1199
Rp1200
sg17
g130
sg19
g20
sa(dp1201
g6
g7
(g11
S'=\n\xd7\xa3p=)\xc0'
p1202
tp1203
Rp1204
sg17
g135
sg19
g20
sa(dp1205
g6
g7
(g11
S'\xc3\xf5(\\\x8f\xc2\x0b@'
p1206
tp1207
Rp1208
sg17
g140
sg19
g20
sa(dp1209
g6
g7
(g11
S'H\xe1z\x14\xae\xa7F\xc0'
p1210
tp1211
Rp1212
sg17
g145
sg19
g20
sa(dp1213
g6
g7
(g11
S'333333\xc3?'
p1214
tp1215
Rp1216
sg17
g150
sg19
g20
sa(dp1217
g6
g7
(g11
S'\xecQ\xb8\x1e\x85\xeb\r@'
p1218
tp1219
Rp1220
sg17
g155
sg19
g20
sa(dp1221
g6
g7
(g11
S'\xecQ\xb8\x1e\x85\xeb/@'
p1222
tp1223
Rp1224
sg17
g160
sg19
g20
sasg161
g162
sa(dp1225
g2
I1
sg3
(lp1226
(dp1227
g6
g7
(g11
S'\x85\xebQ\xb8\x1e\x85\x13\xc0'
p1228
tp1229
Rp1230
sg17
g18
sg19
g20
sa(dp1231
g6
g7
(g11
S'\x9a\x99\x99\x99\x99Y4\xc0'
p1232
tp1233
Rp1234
sg17
g25
sg19
g20
sa(dp1235
g6
g7
(g11
S'\x00\x00\x00\x00\x00\xd0]@'
p1236
tp1237
Rp1238
sg17
g30
sg19
g20
sa(dp1239
g6
g7
(g11
S'\xc2\xf5(\\\x8f\x029@'
p1240
tp1241
Rp1242
sg17
g35
sg19
g20
sa(dp1243
g6
g7
(g11
S'\x14\xaeG\xe1z\x14\x1f\xc0'
p1244
tp1245
Rp1246
sg17
g40
sg19
g20
sa(dp1247
g6
g7
(g11
S'\n\xd7\xa3p=\xca3@'
p1248
tp1249
Rp1250
sg17
g45
sg19
g20
sa(dp1251
g6
g7
(g11
S'\xecQ\xb8\x1e\x85\xabG@'
p1252
tp1253
Rp1254
sg17
g50
sg19
g20
sa(dp1255
g6
g7
(g11
S'\xf6(\\\x8f\xc2\xf5\n\xc0'
p1256
tp1257
Rp1258
sg17
g55
sg19
g20
sa(dp1259
g6
g7
(g11
S'{\x14\xaeG\xe1z\x1f@'
p1260
tp1261
Rp1262
sg17
g60
sg19
g20
sa(dp1263
g6
g7
(g11
S'\x1f\x85\xebQ\xb8\x1e\x12\xc0'
p1264
tp1265
Rp1266
sg17
g65
sg19
g20
sa(dp1267
g6
g7
(g11
S'\\\x8f\xc2\xf5(\xbcI@'
p1268
tp1269
Rp1270
sg17
g70
sg19
g20
sa(dp1271
g6
g7
(g11
S'=\n\xd7\xa3p\xbd3\xc0'
p1272
tp1273
Rp1274
sg17
g75
sg19
g20
sa(dp1275
g6
g7
(g11
S'\\\x8f\xc2\xf5(\\\xfb\xbf'
p1276
tp1277
Rp1278
sg17
g80
sg19
g20
sa(dp1279
g6
g7
(g11
S'\x85\xebQ\xb8\x1eeJ\xc0'
p1280
tp1281
Rp1282
sg17
g85
sg19
g20
sa(dp1283
g6
g7
(g11
S'R\xb8\x1e\x85\xebQ\x16\xc0'
p1284
tp1285
Rp1286
sg17
g90
sg19
g20
sa(dp1287
g6
g7
(g11
S'\x85\xebQ\xb8\x1e\x05%@'
p1288
tp1289
Rp1290
sg17
g95
sg19
g20
sa(dp1291
g6
g7
(g11
S'=\n\xd7\xa3p=&@'
p1292
tp1293
Rp1294
sg17
g100
sg19
g20
sa(dp1295
g6
g7
(g11
S'\xb8\x1e\x85\xebQx3@'
p1296
tp1297
Rp1298
sg17
g105
sg19
g20
sa(dp1299
g6
g7
(g11
S'\xf6(\\\x8f\xc2u-@'
p1300
tp1301
Rp1302
sg17
g110
sg19
g20
sa(dp1303
g6
g7
(g11
S'ffffff\x11\xc0'
p1304
tp1305
Rp1306
sg17
g115
sg19
g20
sa(dp1307
g6
g7
(g11
S'=\n\xd7\xa3p\xfd>\xc0'
p1308
tp1309
Rp1310
sg17
g120
sg19
g20
sa(dp1311
g6
g7
(g11
S'\x9a\x99\x99\x99\x99\x19-\xc0'
p1312
tp1313
Rp1314
sg17
g125
sg19
g20
sa(dp1315
g6
g7
(g11
S'R\xb8\x1e\x85\xeb\xd1*\xc0'
p1316
tp1317
Rp1318
sg17
g130
sg19
g20
sa(dp1319
g6
g7
(g11
S'=\n\xd7\xa3p=)\xc0'
p1320
tp1321
Rp1322
sg17
g135
sg19
g20
sa(dp1323
g6
g7
(g11
S'ffffff\n@'
p1324
tp1325
Rp1326
sg17
g140
sg19
g20
sa(dp1327
g6
g7
(g11
S'H\xe1z\x14\xae\xa7F\xc0'
p1328
tp1329
Rp1330
sg17
g145
sg19
g20
sa(dp1331
g6
g7
(g11
S'333333\xc3?'
p1332
tp1333
Rp1334
sg17
g150
sg19
g20
sa(dp1335
g6
g7
(g11
S'\xecQ\xb8\x1e\x85\xeb\r@'
p1336
tp1337
Rp1338
sg17
g155
sg19
g20
sa(dp1339
g6
g7
(g11
S'\xecQ\xb8\x1e\x85\xeb/@'
p1340
tp1341
Rp1342
sg17
g160
sg19
g20
sasg161
g162
sa(dp1343
g2
I1
sg3
(lp1344
(dp1345
g6
g7
(g11
S'\xecQ\xb8\x1e\x85\xeb\x14\xc0'
p1346
tp1347
Rp1348
sg17
g18
sg19
g20
sa(dp1349
g6
g7
(g11
S'fffff\xa63\xc0'
p1350
tp1351
Rp1352
sg17
g25
sg19
g20
sa(dp1353
g6
g7
(g11
S'=\n\xd7\xa3p\x9dY@'
p1354
tp1355
Rp1356
sg17
g30
sg19
g20
sa(dp1357
g6
g7
(g11
S'\xc2\xf5(\\\x8f\x029@'
p1358
tp1359
Rp1360
sg17
g35
sg19
g20
sa(dp1361
g6
g7
(g11
S'\x1f\x85\xebQ\xb8\x1e \xc0'
p1362
tp1363
Rp1364
sg17
g40
sg19
g20
sa(dp1365
g6
g7
(g11
S'\n\xd7\xa3p=\xca3@'
p1366
tp1367
Rp1368
sg17
g45
sg19
g20
sa(dp1369
g6
g7
(g11
S'\xcd\xcc\xcc\xcc\xcc\xccG@'
p1370
tp1371
Rp1372
sg17
g50
sg19
g20
sa(dp1373
g6
g7
(g11
S'\\\x8f\xc2\xf5(\\\r\xc0'
p1374
tp1375
Rp1376
sg17
g55
sg19
g20
sa(dp1377
g6
g7
(g11
S'\x1f\x85\xebQ\xb8\x9e @'
p1378
tp1379
Rp1380
sg17
g60
sg19
g20
sa(dp1381
g6
g7
(g11
S'\xe1z\x14\xaeG\xa19\xc0'
p1382
tp1383
Rp1384
sg17
g65
sg19
g20
sa(dp1385
g6
g7
(g11
S'\xc3\xf5(\\\x8f\x02G@'
p1386
tp1387
Rp1388
sg17
g70
sg19
g20
sa(dp1389
g6
g7
(g11
S')\\\x8f\xc2\xf5\xe83\xc0'
p1390
tp1391
Rp1392
sg17
g75
sg19
g20
sa(dp1393
g6
g7
(g11
S'\x9a\x99\x99\x99\x99\x99\xf1\xbf'
p1394
tp1395
Rp1396
sg17
g80
sg19
g20
sa(dp1397
g6
g7
(g11
S'{\x14\xaeG\xe1:P\xc0'
p1398
tp1399
Rp1400
sg17
g85
sg19
g20
sa(dp1401
g6
g7
(g11
S'\xaeG\xe1z\x14\xae\x16\xc0'
p1402
tp1403
Rp1404
sg17
g90
sg19
g20
sa(dp1405
g6
g7
(g11
S'{\x14\xaeG\xe1z$@'
p1406
tp1407
Rp1408
sg17
g95
sg19
g20
sa(dp1409
g6
g7
(g11
S'=\n\xd7\xa3p=&@'
p1410
tp1411
Rp1412
sg17
g100
sg19
g20
sa(dp1413
g6
g7
(g11
S')\\\x8f\xc2\xf5\xe83@'
p1414
tp1415
Rp1416
sg17
g105
sg19
g20
sa(dp1417
g6
g7
(g11
S'{\x14\xaeG\xe1\xfa-@'
p1418
tp1419
Rp1420
sg17
g110
sg19
g20
sa(dp1421
g6
g7
(g11
S'ffffff\x11\xc0'
p1422
tp1423
Rp1424
sg17
g115
sg19
g20
sa(dp1425
g6
g7
(g11
S'=\n\xd7\xa3p}=\xc0'
p1426
tp1427
Rp1428
sg17
g120
sg19
g20
sa(dp1429
g6
g7
(g11
S'\x9a\x99\x99\x99\x99\x19-\xc0'
p1430
tp1431
Rp1432
sg17
g125
sg19
g20
sa(dp1433
g6
g7
(g11
S'{\x14\xaeG\xe1\xfa*\xc0'
p1434
tp1435
Rp1436
sg17
g130
sg19
g20
sa(dp1437
g6
g7
(g11
S'\xe1z\x14\xaeG\xe1(\xc0'
p1438
tp1439
Rp1440
sg17
g135
sg19
g20
sa(dp1441
g6
g7
(g11
S'ffffff\n@'
p1442
tp1443
Rp1444
sg17
g140
sg19
g20
sa(dp1445
g6
g7
(g11
S'=\n\xd7\xa3p=G\xc0'
p1446
tp1447
Rp1448
sg17
g145
sg19
g20
sa(dp1449
g6
g7
(g11
S'R\xb8\x1e\x85\xebQ\x06\xc0'
p1450
tp1451
Rp1452
sg17
g150
sg19
g20
sa(dp1453
g6
g7
(g11
S'\\\x8f\xc2\xf5(\\\x10@'
p1454
tp1455
Rp1456
sg17
g155
sg19
g20
sa(dp1457
g6
g7
(g11
S'\x8f\xc2\xf5(\\O0@'
p1458
tp1459
Rp1460
sg17
g160
sg19
g20
sasg161
g162
sa(dp1461
g2
I1
sg3
(lp1462
(dp1463
g6
g7
(g11
S'\xf6(\\\x8f\xc2\xf5\x15\xc0'
p1464
tp1465
Rp1466
sg17
g18
sg19
g20
sa(dp1467
g6
g7
(g11
S'fffff\xa63\xc0'
p1468
tp1469
Rp1470
sg17
g25
sg19
g20
sa(dp1471
g6
g7
(g11
S'=\n\xd7\xa3p\x9dY@'
p1472
tp1473
Rp1474
sg17
g30
sg19
g20
sa(dp1475
g6
g7
(g11
S'\xc2\xf5(\\\x8f\x029@'
p1476
tp1477
Rp1478
sg17
g35
sg19
g20
sa(dp1479
g6
g7
(g11
S'\xb8\x1e\x85\xebQ\xb8 \xc0'
p1480
tp1481
Rp1482
sg17
g40
sg19
g20
sa(dp1483
g6
g7
(g11
S'\x00\x00\x00\x00\x00\x803@'
p1484
tp1485
Rp1486
sg17
g45
sg19
g20
sa(dp1487
g6
g7
(g11
S'\xcd\xcc\xcc\xcc\xcc\xccG@'
p1488
tp1489
Rp1490
sg17
g50
sg19
g20
sa(dp1491
g6
g7
(g11
S'\\\x8f\xc2\xf5(\\\r\xc0'
p1492
tp1493
Rp1494
sg17
g55
sg19
g20
sa(dp1495
g6
g7
(g11
S'\xa4p=\n\xd7#!@'
p1496
tp1497
Rp1498
sg17
g60
sg19
g20
sa(dp1499
g6
g7
(g11
S'\n\xd7\xa3p=\xca<\xc0'
p1500
tp1501
Rp1502
sg17
g65
sg19
g20
sa(dp1503
g6
g7
(g11
S'ffffff\n@'
p1504
tp1505
Rp1506
sg17
g70
sg19
g20
sa(dp1507
g6
g7
(g11
S'R\xb8\x1e\x85\xeb\xd13\xc0'
p1508
tp1509
Rp1510
sg17
g75
sg19
g20
sa(dp1511
g6
g7
(g11
S'\x1f\x85\xebQ\xb8\x1e\xe5\xbf'
p1512
tp1513
Rp1514
sg17
g80
sg19
g20
sa(dp1515
g6
g7
(g11
S'q=\n\xd7\xa3\xb0I\xc0'
p1516
tp1517
Rp1518
sg17
g85
sg19
g20
sa(dp1519
g6
g7
(g11
S'\xaeG\xe1z\x14\xae\x16\xc0'
p1520
tp1521
Rp1522
sg17
g90
sg19
g20
sa(dp1523
g6
g7
(g11
S'{\x14\xaeG\xe1z$@'
p1524
tp1525
Rp1526
sg17
g95
sg19
g20
sa(dp1527
g6
g7
(g11
S'=\n\xd7\xa3p=&@'
p1528
tp1529
Rp1530
sg17
g100
sg19
g20
sa(dp1531
g6
g7
(g11
S'\x00\x00\x00\x00\x00\x004@'
p1532
tp1533
Rp1534
sg17
g105
sg19
g20
sa(dp1535
g6
g7
(g11
S'{\x14\xaeG\xe1\xfa-@'
p1536
tp1537
Rp1538
sg17
g110
sg19
g20
sa(dp1539
g6
g7
(g11
S'ffffff\x11\xc0'
p1540
tp1541
Rp1542
sg17
g115
sg19
g20
sa(dp1543
g6
g7
(g11
S'\xa4p=\n\xd7#=\xc0'
p1544
tp1545
Rp1546
sg17
g120
sg19
g20
sa(dp1547
g6
g7
(g11
S'\x9a\x99\x99\x99\x99\x19-\xc0'
p1548
tp1549
Rp1550
sg17
g125
sg19
g20
sa(dp1551
g6
g7
(g11
S')\\\x8f\xc2\xf5(+\xc0'
p1552
tp1553
Rp1554
sg17
g130
sg19
g20
sa(dp1555
g6
g7
(g11
S'=\n\xd7\xa3p=)\xc0'
p1556
tp1557
Rp1558
sg17
g135
sg19
g20
sa(dp1559
g6
g7
(g11
S'\xaeG\xe1z\x14\xae\t@'
p1560
tp1561
Rp1562
sg17
g140
sg19
g20
sa(dp1563
g6
g7
(g11
S'\xc3\xf5(\\\x8fbG\xc0'
p1564
tp1565
Rp1566
sg17
g145
sg19
g20
sa(dp1567
g6
g7
(g11
S'\xc3\xf5(\\\x8f\xc2\xf9\xbf'
p1568
tp1569
Rp1570
sg17
g150
sg19
g20
sa(dp1571
g6
g7
(g11
S'\xb8\x1e\x85\xebQ\xb8\x10@'
p1572
tp1573
Rp1574
sg17
g155
sg19
g20
sa(dp1575
g6
g7
(g11
S'{\x14\xaeG\xe1z0@'
p1576
tp1577
Rp1578
sg17
g160
sg19
g20
sasg161
g162
sa(dp1579
g2
I1
sg3
(lp1580
(dp1581
g6
g7
(g11
S'\x00\x00\x00\x00\x00\xc08\xc0'
p1582
tp1583
Rp1584
sg17
g18
sg19
g20
sa(dp1585
g6
g7
(g11
S'fffff\xa63\xc0'
p1586
tp1587
Rp1588
sg17
g25
sg19
g20
sa(dp1589
g6
g7
(g11
S'=\n\xd7\xa3p\x9dY@'
p1590
tp1591
Rp1592
sg17
g30
sg19
g20
sa(dp1593
g6
g7
(g11
S'\xc2\xf5(\\\x8f\x029@'
p1594
tp1595
Rp1596
sg17
g35
sg19
g20
sa(dp1597
g6
g7
(g11
S'\xcd\xcc\xcc\xcc\xccL!\xc0'
p1598
tp1599
Rp1600
sg17
g40
sg19
g20
sa(dp1601
g6
g7
(g11
S'\xcd\xcc\xcc\xcc\xcc\x8c5@'
p1602
tp1603
Rp1604
sg17
g45
sg19
g20
sa(dp1605
g6
g7
(g11
S'\xb8\x1e\x85\xebQ\xd8G@'
p1606
tp1607
Rp1608
sg17
g50
sg19
g20
sa(dp1609
g6
g7
(g11
S'R\xb8\x1e\x85\xebQ\x06\xc0'
p1610
tp1611
Rp1612
sg17
g55
sg19
g20
sa(dp1613
g6
g7
(g11
S'\xaeG\xe1z\x14\xae!@'
p1614
tp1615
Rp1616
sg17
g60
sg19
g20
sa(dp1617
g6
g7
(g11
S'=\n\xd7\xa3p=\x1b@'
p1618
tp1619
Rp1620
sg17
g65
sg19
g20
sa(dp1621
g6
g7
(g11
S'\x14\xaeG\xe1z\x94=\xc0'
p1622
tp1623
Rp1624
sg17
g70
sg19
g20
sa(dp1625
g6
g7
(g11
S'fffff\xa63\xc0'
p1626
tp1627
Rp1628
sg17
g75
sg19
g20
sa(dp1629
g6
g7
(g11
S'\xd7\xa3p=\n\xd7\xd3\xbf'
p1630
tp1631
Rp1632
sg17
g80
sg19
g20
sa(dp1633
g6
g7
(g11
S'\x00\x00\x00\x00\x00`L\xc0'
p1634
tp1635
Rp1636
sg17
g85
sg19
g20
sa(dp1637
g6
g7
(g11
S'\x1f\x85\xebQ\xb8\xdeE@'
p1638
tp1639
Rp1640
sg17
g90
sg19
g20
sa(dp1641
g6
g7
(g11
S')\\\x8f\xc2\xf5\xa8$@'
p1642
tp1643
Rp1644
sg17
g95
sg19
g20
sa(dp1645
g6
g7
(g11
S'=\n\xd7\xa3p=&@'
p1646
tp1647
Rp1648
sg17
g100
sg19
g20
sa(dp1649
g6
g7
(g11
S'\xd7\xa3p=\n\x174@'
p1650
tp1651
Rp1652
sg17
g105
sg19
g20
sa(dp1653
g6
g7
(g11
S'{\x14\xaeG\xe1\xfa-@'
p1654
tp1655
Rp1656
sg17
g110
sg19
g20
sa(dp1657
g6
g7
(g11
S'ffffff\x11\xc0'
p1658
tp1659
Rp1660
sg17
g115
sg19
g20
sa(dp1661
g6
g7
(g11
S'\n\xd7\xa3p=\xca<\xc0'
p1662
tp1663
Rp1664
sg17
g120
sg19
g20
sa(dp1665
g6
g7
(g11
S'\x9a\x99\x99\x99\x99\x19-\xc0'
p1666
tp1667
Rp1668
sg17
g125
sg19
g20
sa(dp1669
g6
g7
(g11
S')\\\x8f\xc2\xf5(+\xc0'
p1670
tp1671
Rp1672
sg17
g130
sg19
g20
sa(dp1673
g6
g7
(g11
S'\xe1z\x14\xaeG\xe1(\xc0'
p1674
tp1675
Rp1676
sg17
g135
sg19
g20
sa(dp1677
g6
g7
(g11
S'\xaeG\xe1z\x14\xae\t@'
p1678
tp1679
Rp1680
sg17
g140
sg19
g20
sa(dp1681
g6
g7
(g11
S'\xb8\x1e\x85\xebQ\x18G\xc0'
p1682
tp1683
Rp1684
sg17
g145
sg19
g20
sa(dp1685
g6
g7
(g11
S'{\x14\xaeG\xe1z\xf0\xbf'
p1686
tp1687
Rp1688
sg17
g150
sg19
g20
sa(dp1689
g6
g7
(g11
S'\\\x8f\xc2\xf5(\\1@'
p1690
tp1691
Rp1692
sg17
g155
sg19
g20
sa(dp1693
g6
g7
(g11
S'\x14\xaeG\xe1z\x147@'
p1694
tp1695
Rp1696
sg17
g160
sg19
g20
sasg161
g162
sa(dp1697
g2
I1
sg3
(lp1698
(dp1699
g6
g7
(g11
S')\\\x8f\xc2\xf5xP\xc0'
p1700
tp1701
Rp1702
sg17
g18
sg19
g20
sa(dp1703
g6
g7
(g11
S'fffff\xa63\xc0'
p1704
tp1705
Rp1706
sg17
g25
sg19
g20
sa(dp1707
g6
g7
(g11
S'\xc3\xf5(\\\x8f\x92Y@'
p1708
tp1709
Rp1710
sg17
g30
sg19
g20
sa(dp1711
g6
g7
(g11
S'\xc2\xf5(\\\x8f\x029@'
p1712
tp1713
Rp1714
sg17
g35
sg19
g20
sa(dp1715
g6
g7
(g11
S'\xe1z\x14\xaeG\xe1!\xc0'
p1716
tp1717
Rp1718
sg17
g40
sg19
g20
sa(dp1719
g6
g7
(g11
S'\xcd\xcc\xcc\xcc\xcc\x8c5@'
p1720
tp1721
Rp1722
sg17
g45
sg19
g20
sa(dp1723
g6
g7
(g11
S'\xe1z\x14\xaeG\x81U@'
p1724
tp1725
Rp1726
sg17
g50
sg19
g20
sa(dp1727
g6
g7
(g11
S'\xecQ\xb8\x1e\x85\xeb\x03\xc0'
p1728
tp1729
Rp1730
sg17
g55
sg19
g20
sa(dp1731
g6
g7
(g11
S'\x85\xebQ\xb8\x1e\x05"@'
p1732
tp1733
Rp1734
sg17
g60
sg19
g20
sa(dp1735
g6
g7
(g11
S'\xcd\xcc\xcc\xcc\xcc\xcc-@'
p1736
tp1737
Rp1738
sg17
g65
sg19
g20
sa(dp1739
g6
g7
(g11
S'fffff\xa6;\xc0'
p1740
tp1741
Rp1742
sg17
g70
sg19
g20
sa(dp1743
g6
g7
(g11
S'\xb8\x1e\x85\xebQx3\xc0'
p1744
tp1745
Rp1746
sg17
g75
sg19
g20
sa(dp1747
g6
g7
(g11
S'{\x14\xaeG\xe1z\xa4?'
p1748
tp1749
Rp1750
sg17
g80
sg19
g20
sa(dp1751
g6
g7
(g11
S'\xb8\x1e\x85\xebQ\x08V\xc0'
p1752
tp1753
Rp1754
sg17
g85
sg19
g20
sa(dp1755
g6
g7
(g11
S'\n\xd7\xa3p=*T@'
p1756
tp1757
Rp1758
sg17
g90
sg19
g20
sa(dp1759
g6
g7
(g11
S')\\\x8f\xc2\xf5\xa8$@'
p1760
tp1761
Rp1762
sg17
g95
sg19
g20
sa(dp1763
g6
g7
(g11
S'\x8f\xc2\xf5(\\\x0f&@'
p1764
tp1765
Rp1766
sg17
g100
sg19
g20
sa(dp1767
g6
g7
(g11
S'\xaeG\xe1z\x14.4@'
p1768
tp1769
Rp1770
sg17
g105
sg19
g20
sa(dp1771
g6
g7
(g11
S'{\x14\xaeG\xe1\xfa-@'
p1772
tp1773
Rp1774
sg17
g110
sg19
g20
sa(dp1775
g6
g7
(g11
S'ffffff\x11\xc0'
p1776
tp1777
Rp1778
sg17
g115
sg19
g20
sa(dp1779
g6
g7
(g11
S'q=\n\xd7\xa3p<\xc0'
p1780
tp1781
Rp1782
sg17
g120
sg19
g20
sa(dp1783
g6
g7
(g11
S'\x9a\x99\x99\x99\x99\x19-\xc0'
p1784
tp1785
Rp1786
sg17
g125
sg19
g20
sa(dp1787
g6
g7
(g11
S'\xd7\xa3p=\nW+\xc0'
p1788
tp1789
Rp1790
sg17
g130
sg19
g20
sa(dp1791
g6
g7
(g11
S'33333\xb3(\xc0'
p1792
tp1793
Rp1794
sg17
g135
sg19
g20
sa(dp1795
g6
g7
(g11
S'\xaeG\xe1z\x14\xae\t@'
p1796
tp1797
Rp1798
sg17
g140
sg19
g20
sa(dp1799
g6
g7
(g11
S'\\\x8f\xc2\xf5(\\F\xc0'
p1800
tp1801
Rp1802
sg17
g145
sg19
g20
sa(dp1803
g6
g7
(g11
S'{\x14\xaeG\xe1z\xf0\xbf'
p1804
tp1805
Rp1806
sg17
g150
sg19
g20
sa(dp1807
g6
g7
(g11
S'H\xe1z\x14\xae\xc7?@'
p1808
tp1809
Rp1810
sg17
g155
sg19
g20
sa(dp1811
g6
g7
(g11
S'\x8f\xc2\xf5(\\\xcf6@'
p1812
tp1813
Rp1814
sg17
g160
sg19
g20
sasg161
g162
sa(dp1815
g2
I1
sg3
(lp1816
(dp1817
g6
g7
(g11
S'\x00\x00\x00\x00\x000V\xc0'
p1818
tp1819
Rp1820
sg17
g18
sg19
g20
sa(dp1821
g6
g7
(g11
S'fffff\xa63\xc0'
p1822
tp1823
Rp1824
sg17
g25
sg19
g20
sa(dp1825
g6
g7
(g11
S'fffffvY@'
p1826
tp1827
Rp1828
sg17
g30
sg19
g20
sa(dp1829
g6
g7
(g11
S'\xb0G\xe1z\x14\xae.@'
p1830
tp1831
Rp1832
sg17
g35
sg19
g20
sa(dp1833
g6
g7
(g11
S'\xecQ\xb8\x1e\x85\xeb(\xc0'
p1834
tp1835
Rp1836
sg17
g40
sg19
g20
sa(dp1837
g6
g7
(g11
S'\xcd\xcc\xcc\xcc\xcc\x8c5@'
p1838
tp1839
Rp1840
sg17
g45
sg19
g20
sa(dp1841
g6
g7
(g11
S'q=\n\xd7\xa3\xa0V@'
p1842
tp1843
Rp1844
sg17
g50
sg19
g20
sa(dp1845
g6
g7
(g11
S'R\xb8\x1e\x85\xebQ\x06\xc0'
p1846
tp1847
Rp1848
sg17
g55
sg19
g20
sa(dp1849
g6
g7
(g11
S'\n\xd7\xa3p=\x8a"@'
p1850
tp1851
Rp1852
sg17
g60
sg19
g20
sa(dp1853
g6
g7
(g11
S'q=\n\xd7\xa3p\x18\xc0'
p1854
tp1855
Rp1856
sg17
g65
sg19
g20
sa(dp1857
g6
g7
(g11
S'\n\xd7\xa3p=\xcaB\xc0'
p1858
tp1859
Rp1860
sg17
g70
sg19
g20
sa(dp1861
g6
g7
(g11
S'\x00\x00\x00\x00\x00\x004\xc0'
p1862
tp1863
Rp1864
sg17
g75
sg19
g20
sa(dp1865
g6
g7
(g11
S'\x1f\x85\xebQ\xb8\x1e\xe5?'
p1866
tp1867
Rp1868
sg17
g80
sg19
g20
sa(dp1869
g6
g7
(g11
S'fffffvS\xc0'
p1870
tp1871
Rp1872
sg17
g85
sg19
g20
sa(dp1873
g6
g7
(g11
S'\\\x8f\xc2\xf5(\\\x1d\xc0'
p1874
tp1875
Rp1876
sg17
g90
sg19
g20
sa(dp1877
g6
g7
(g11
S'\x85\xebQ\xb8\x1e\x857@'
p1878
tp1879
Rp1880
sg17
g95
sg19
g20
sa(dp1881
g6
g7
(g11
S'\x8f\xc2\xf5(\\\x8f/@'
p1882
tp1883
Rp1884
sg17
g100
sg19
g20
sa(dp1885
g6
g7
(g11
S'\xb8\x1e\x85\xebQ\xf84@'
p1886
tp1887
Rp1888
sg17
g105
sg19
g20
sa(dp1889
g6
g7
(g11
S'R\xb8\x1e\x85\xeb\x112@'
p1890
tp1891
Rp1892
sg17
g110
sg19
g20
sa(dp1893
g6
g7
(g11
S'\xcd\xcc\xcc\xcc\xcc\x8c>@'
p1894
tp1895
Rp1896
sg17
g115
sg19
g20
sa(dp1897
g6
g7
(g11
S'H\xe1z\x14\xae\xc77@'
p1898
tp1899
Rp1900
sg17
g120
sg19
g20
sa(dp1901
g6
g7
(g11
S'\x9a\x99\x99\x99\x99\x19-\xc0'
p1902
tp1903
Rp1904
sg17
g125
sg19
g20
sa(dp1905
g6
g7
(g11
S'\xf6(\\\x8f\xc2u6\xc0'
p1906
tp1907
Rp1908
sg17
g130
sg19
g20
sa(dp1909
g6
g7
(g11
S'\xaeG\xe1z\x14\xae\t\xc0'
p1910
tp1911
Rp1912
sg17
g135
sg19
g20
sa(dp1913
g6
g7
(g11
S'\xe1z\x14\xaeG\xe1\x13\xc0'
p1914
tp1915
Rp1916
sg17
g140
sg19
g20
sa(dp1917
g6
g7
(g11
S'\\\x8f\xc2\xf5(\\F\xc0'
p1918
tp1919
Rp1920
sg17
g145
sg19
g20
sa(dp1921
g6
g7
(g11
S'{\x14\xaeG\xe1z\xf0\xbf'
p1922
tp1923
Rp1924
sg17
g150
sg19
g20
sa(dp1925
g6
g7
(g11
S')\\\x8f\xc2\xf5\x08E@'
p1926
tp1927
Rp1928
sg17
g155
sg19
g20
sa(dp1929
g6
g7
(g11
S'\xb8\x1e\x85\xebQhV\xc0'
p1930
tp1931
Rp1932
sg17
g160
sg19
g20
sasg161
g162
sa(dp1933
g2
I1
sg3
(lp1934
(dp1935
g6
g7
(g11
S'\x14\xaeG\xe1z\x84Z\xc0'
p1936
tp1937
Rp1938
sg17
g18
sg19
g20
sa(dp1939
g6
g7
(g11
S'R\xb8\x1e\x85\xeb\xd13\xc0'
p1940
tp1941
Rp1942
sg17
g25
sg19
g20
sa(dp1943
g6
g7
(g11
S'{\x14\xaeG\xe1jY@'
p1944
tp1945
Rp1946
sg17
g30
sg19
g20
sa(dp1947
g6
g7
(g11
S'\xcc\xcc\xcc\xcc\xcc\xcc(@'
p1948
tp1949
Rp1950
sg17
g35
sg19
g20
sa(dp1951
g6
g7
(g11
S'\xaeG\xe1z\x14n6\xc0'
p1952
tp1953
Rp1954
sg17
g40
sg19
g20
sa(dp1955
g6
g7
(g11
S'\xcd\xcc\xcc\xcc\xcc\x8c5@'
p1956
tp1957
Rp1958
sg17
g45
sg19
g20
sa(dp1959
g6
g7
(g11
S'q=\n\xd7\xa3\xa0V@'
p1960
tp1961
Rp1962
sg17
g50
sg19
g20
sa(dp1963
g6
g7
(g11
S'R\xb8\x1e\x85\xebQ\x06\xc0'
p1964
tp1965
Rp1966
sg17
g55
sg19
g20
sa(dp1967
g6
g7
(g11
S'fffff\xe6"@'
p1968
tp1969
Rp1970
sg17
g60
sg19
g20
sa(dp1971
g6
g7
(g11
S'\xb8\x1e\x85\xebQ\xb8\x17\xc0'
p1972
tp1973
Rp1974
sg17
g65
sg19
g20
sa(dp1975
g6
g7
(g11
S')\\\x8f\xc2\xf5\xa8F\xc0'
p1976
tp1977
Rp1978
sg17
g70
sg19
g20
sa(dp1979
g6
g7
(g11
S'H\xe1z\x14\xae\x874\xc0'
p1980
tp1981
Rp1982
sg17
g75
sg19
g20
sa(dp1983
g6
g7
(g11
S'\x9a\x99\x99\x99\x99\x99\xf1?'
p1984
tp1985
Rp1986
sg17
g80
sg19
g20
sa(dp1987
g6
g7
(g11
S'33333sR\xc0'
p1988
tp1989
Rp1990
sg17
g85
sg19
g20
sa(dp1991
g6
g7
(g11
S'fffff\xe6"\xc0'
p1992
tp1993
Rp1994
sg17
g90
sg19
g20
sa(dp1995
g6
g7
(g11
S'\x00\x00\x00\x00\x00\xc08@'
p1996
tp1997
Rp1998
sg17
g95
sg19
g20
sa(dp1999
g6
g7
(g11
S'\xe1z\x14\xaeGa/@'
p2000
tp2001
Rp2002
sg17
g100
sg19
g20
sa(dp2003
g6
g7
(g11
S'R\xb8\x1e\x85\xebQ5@'
p2004
tp2005
Rp2006
sg17
g105
sg19
g20
sa(dp2007
g6
g7
(g11
S'\x9a\x99\x99\x99\x99\x99\x1b@'
p2008
tp2009
Rp2010
sg17
g110
sg19
g20
sa(dp2011
g6
g7
(g11
S'q=\n\xd7\xa3\x10D@'
p2012
tp2013
Rp2014
sg17
g115
sg19
g20
sa(dp2015
g6
g7
(g11
S'\\\x8f\xc2\xf5(\x1cH@'
p2016
tp2017
Rp2018
sg17
g120
sg19
g20
sa(dp2019
g6
g7
(g11
S'\x9a\x99\x99\x99\x99\x19-\xc0'
p2020
tp2021
Rp2022
sg17
g125
sg19
g20
sa(dp2023
g6
g7
(g11
S'{\x14\xaeG\xe1\xba6\xc0'
p2024
tp2025
Rp2026
sg17
g130
sg19
g20
sa(dp2027
g6
g7
(g11
S'\x9a\x99\x99\x99\x99\x99\xf1?'
p2028
tp2029
Rp2030
sg17
g135
sg19
g20
sa(dp2031
g6
g7
(g11
S'\x85\xebQ\xb8\x1e\x85\x13\xc0'
p2032
tp2033
Rp2034
sg17
g140
sg19
g20
sa(dp2035
g6
g7
(g11
S'\\\x8f\xc2\xf5(\\F\xc0'
p2036
tp2037
Rp2038
sg17
g145
sg19
g20
sa(dp2039
g6
g7
(g11
S'\\\x8f\xc2\xf5(\\\xe7\xbf'
p2040
tp2041
Rp2042
sg17
g150
sg19
g20
sa(dp2043
g6
g7
(g11
S'33333\xb34@'
p2044
tp2045
Rp2046
sg17
g155
sg19
g20
sa(dp2047
g6
g7
(g11
S'\n\xd7\xa3p=\x12`\xc0'
p2048
tp2049
Rp2050
sg17
g160
sg19
g20
sasg161
g162
sa(dp2051
g2
I1
sg3
(lp2052
(dp2053
g6
g7
(g11
S'\x9a\x99\x99\x99\x99\xe9\\\xc0'
p2054
tp2055
Rp2056
sg17
g18
sg19
g20
sa(dp2057
g6
g7
(g11
S'\x8f\xc2\xf5(\\\x8f3\xc0'
p2058
tp2059
Rp2060
sg17
g25
sg19
g20
sa(dp2061
g6
g7
(g11
S'33333CY@'
p2062
tp2063
Rp2064
sg17
g30
sg19
g20
sa(dp2065
g6
g7
(g11
S'\x1e\x85\xebQ\xb8\x1e$@'
p2066
tp2067
Rp2068
sg17
g35
sg19
g20
sa(dp2069
g6
g7
(g11
S'\x9a\x99\x99\x99\x99Y@\xc0'
p2070
tp2071
Rp2072
sg17
g40
sg19
g20
sa(dp2073
g6
g7
(g11
S'\xcd\xcc\xcc\xcc\xcc\x8c5@'
p2074
tp2075
Rp2076
sg17
g45
sg19
g20
sa(dp2077
g6
g7
(g11
S'\xf6(\\\x8f\xc2\xa5V@'
p2078
tp2079
Rp2080
sg17
g50
sg19
g20
sa(dp2081
g6
g7
(g11
S'R\xb8\x1e\x85\xebQ\x06\xc0'
p2082
tp2083
Rp2084
sg17
g55
sg19
g20
sa(dp2085
g6
g7
(g11
S'\xc3\xf5(\\\x8fB#@'
p2086
tp2087
Rp2088
sg17
g60
sg19
g20
sa(dp2089
g6
g7
(g11
S')\\\x8f\xc2\xf5(\xf0?'
p2090
tp2091
Rp2092
sg17
g65
sg19
g20
sa(dp2093
g6
g7
(g11
S'fffff\xe6L\xc0'
p2094
tp2095
Rp2096
sg17
g70
sg19
g20
sa(dp2097
g6
g7
(g11
S'\xb8\x1e\x85\xebQ\xf84\xc0'
p2098
tp2099
Rp2100
sg17
g75
sg19
g20
sa(dp2101
g6
g7
(g11
S'\\\x8f\xc2\xf5(\\\xfb?'
p2102
tp2103
Rp2104
sg17
g80
sg19
g20
sa(dp2105
g6
g7
(g11
S'\\\x8f\xc2\xf5(LR\xc0'
p2106
tp2107
Rp2108
sg17
g85
sg19
g20
sa(dp2109
g6
g7
(g11
S'\xb8\x1e\x85\xebQ\xb8"@'
p2110
tp2111
Rp2112
sg17
g90
sg19
g20
sa(dp2113
g6
g7
(g11
S'\xf6(\\\x8f\xc2\xb59@'
p2114
tp2115
Rp2116
sg17
g95
sg19
g20
sa(dp2117
g6
g7
(g11
S'333333/@'
p2118
tp2119
Rp2120
sg17
g100
sg19
g20
sa(dp2121
g6
g7
(g11
S')\\\x8f\xc2\xf5h5@'
p2122
tp2123
Rp2124
sg17
g105
sg19
g20
sa(dp2125
g6
g7
(g11
S'\xd7\xa3p=\n\xd7\x1f\xc0'
p2126
tp2127
Rp2128
sg17
g110
sg19
g20
sa(dp2129
g6
g7
(g11
S'{\x14\xaeG\xe1\xdaH@'
p2130
tp2131
Rp2132
sg17
g115
sg19
g20
sa(dp2133
g6
g7
(g11
S'\x1f\x85\xebQ\xb8\xaeQ@'
p2134
tp2135
Rp2136
sg17
g120
sg19
g20
sa(dp2137
g6
g7
(g11
S'\x9a\x99\x99\x99\x99\x19-\xc0'
p2138
tp2139
Rp2140
sg17
g125
sg19
g20
sa(dp2141
g6
g7
(g11
S'\xa4p=\n\xd7\xa36\xc0'
p2142
tp2143
Rp2144
sg17
g130
sg19
g20
sa(dp2145
g6
g7
(g11
S'333333\x1a\xc0'
p2146
tp2147
Rp2148
sg17
g135
sg19
g20
sa(dp2149
g6
g7
(g11
S'\xe1z\x14\xaeG\xe1\x13\xc0'
p2150
tp2151
Rp2152
sg17
g140
sg19
g20
sa(dp2153
g6
g7
(g11
S'\\\x8f\xc2\xf5(\\F\xc0'
p2154
tp2155
Rp2156
sg17
g145
sg19
g20
sa(dp2157
g6
g7
(g11
S'\x1f\x85\xebQ\xb8^L@'
p2158
tp2159
Rp2160
sg17
g150
sg19
g20
sa(dp2161
g6
g7
(g11
S'{\x14\xaeG\xe1z\x19@'
p2162
tp2163
Rp2164
sg17
g155
sg19
g20
sa(dp2165
g6
g7
(g11
S'\\\x8f\xc2\xf5(\x9ca\xc0'
p2166
tp2167
Rp2168
sg17
g160
sg19
g20
sasg161
g162
sa(dp2169
g2
I1
sg3
(lp2170
(dp2171
g6
g7
(g11
S'q=\n\xd7\xa3@\\\xc0'
p2172
tp2173
Rp2174
sg17
g18
sg19
g20
sa(dp2175
g6
g7
(g11
S'\xc3\xf5(\\\x8fB \xc0'
p2176
tp2177
Rp2178
sg17
g25
sg19
g20
sa(dp2179
g6
g7
(g11
S'=\n\xd7\xa3p\xfdW@'
p2180
tp2181
Rp2182
sg17
g30
sg19
g20
sa(dp2183
g6
g7
(g11
S'43333\xb3$@'
p2184
tp2185
Rp2186
sg17
g35
sg19
g20
sa(dp2187
g6
g7
(g11
S'\x8f\xc2\xf5(\\\xef@\xc0'
p2188
tp2189
Rp2190
sg17
g40
sg19
g20
sa(dp2191
g6
g7
(g11
S'\xb8\x1e\x85\xebQ\xf84@'
p2192
tp2193
Rp2194
sg17
g45
sg19
g20
sa(dp2195
g6
g7
(g11
S'\x85\xebQ\xb8\x1e\x95V@'
p2196
tp2197
Rp2198
sg17
g50
sg19
g20
sa(dp2199
g6
g7
(g11
S'\xecQ\xb8\x1e\x85\xeb\x03\xc0'
p2200
tp2201
Rp2202
sg17
g55
sg19
g20
sa(dp2203
g6
g7
(g11
S'q=\n\xd7\xa3\xf0&@'
p2204
tp2205
Rp2206
sg17
g60
sg19
g20
sa(dp2207
g6
g7
(g11
S')\\\x8f\xc2\xf5(\xcc?'
p2208
tp2209
Rp2210
sg17
g65
sg19
g20
sa(dp2211
g6
g7
(g11
S'\xf6(\\\x8f\xc25M\xc0'
p2212
tp2213
Rp2214
sg17
g70
sg19
g20
sa(dp2215
g6
g7
(g11
S'\x85\xebQ\xb8\x1e\x056\xc0'
p2216
tp2217
Rp2218
sg17
g75
sg19
g20
sa(dp2219
g6
g7
(g11
S'{\x14\xaeG\xe1z\xa4\xbf'
p2220
tp2221
Rp2222
sg17
g80
sg19
g20
sa(dp2223
g6
g7
(g11
S'\xcd\xcc\xcc\xcc\xcc\\R\xc0'
p2224
tp2225
Rp2226
sg17
g85
sg19
g20
sa(dp2227
g6
g7
(g11
S'\xc3\xf5(\\\x8fB#\xc0'
p2228
tp2229
Rp2230
sg17
g90
sg19
g20
sa(dp2231
g6
g7
(g11
S'q=\n\xd7\xa3\xf0&@'
p2232
tp2233
Rp2234
sg17
g95
sg19
g20
sa(dp2235
g6
g7
(g11
S'\x8f\xc2\xf5(\\\x8f/@'
p2236
tp2237
Rp2238
sg17
g100
sg19
g20
sa(dp2239
g6
g7
(g11
S'\xcd\xcc\xcc\xcc\xcc\x0c5@'
p2240
tp2241
Rp2242
sg17
g105
sg19
g20
sa(dp2243
g6
g7
(g11
S'\xcd\xcc\xcc\xcc\xcc\xcc\x18@'
p2244
tp2245
Rp2246
sg17
g110
sg19
g20
sa(dp2247
g6
g7
(g11
S'R\xb8\x1e\x85\xebQG@'
p2248
tp2249
Rp2250
sg17
g115
sg19
g20
sa(dp2251
g6
g7
(g11
S'33333\x13E@'
p2252
tp2253
Rp2254
sg17
g120
sg19
g20
sa(dp2255
g6
g7
(g11
S'\x9a\x99\x99\x99\x99\x19-\xc0'
p2256
tp2257
Rp2258
sg17
g125
sg19
g20
sa(dp2259
g6
g7
(g11
S'\xb8\x1e\x85\xebQ\xb8%\xc0'
p2260
tp2261
Rp2262
sg17
g130
sg19
g20
sa(dp2263
g6
g7
(g11
S'=\n\xd7\xa3p\xbd,\xc0'
p2264
tp2265
Rp2266
sg17
g135
sg19
g20
sa(dp2267
g6
g7
(g11
S'\xa4p=\n\xd7\xa3\xc0\xbf'
p2268
tp2269
Rp2270
sg17
g140
sg19
g20
sa(dp2271
g6
g7
(g11
S'\\\x8f\xc2\xf5(\\F\xc0'
p2272
tp2273
Rp2274
sg17
g145
sg19
g20
sa(dp2275
g6
g7
(g11
S'{\x14\xaeG\xe1\xdaH@'
p2276
tp2277
Rp2278
sg17
g150
sg19
g20
sa(dp2279
g6
g7
(g11
S'\xf6(\\\x8f\xc2u*@'
p2280
tp2281
Rp2282
sg17
g155
sg19
g20
sa(dp2283
g6
g7
(g11
S'\xb8\x1e\x85\xebQ\x88`\xc0'
p2284
tp2285
Rp2286
sg17
g160
sg19
g20
sasg161
g162
sa(dp2287
g2
I1
sg3
(lp2288
(dp2289
g6
g7
(g11
S'\xcd\xcc\xcc\xcc\xcc\\\\\xc0'
p2290
tp2291
Rp2292
sg17
g18
sg19
g20
sa(dp2293
g6
g7
(g11
S'\xa4p=\n\xd7\xa3\x02\xc0'
p2294
tp2295
Rp2296
sg17
g25
sg19
g20
sa(dp2297
g6
g7
(g11
S'\\\x8f\xc2\xf5(LV@'
p2298
tp2299
Rp2300
sg17
g30
sg19
g20
sa(dp2301
g6
g7
(g11
S'43333\xb3$@'
p2302
tp2303
Rp2304
sg17
g35
sg19
g20
sa(dp2305
g6
g7
(g11
S'{\x14\xaeG\xe1:A\xc0'
p2306
tp2307
Rp2308
sg17
g40
sg19
g20
sa(dp2309
g6
g7
(g11
S'\xcd\xcc\xcc\xcc\xcc\x8c5@'
p2310
tp2311
Rp2312
sg17
g45
sg19
g20
sa(dp2313
g6
g7
(g11
S'\x85\xebQ\xb8\x1e\x95V@'
p2314
tp2315
Rp2316
sg17
g50
sg19
g20
sa(dp2317
g6
g7
(g11
S'\xecQ\xb8\x1e\x85\xeb\x03\xc0'
p2318
tp2319
Rp2320
sg17
g55
sg19
g20
sa(dp2321
g6
g7
(g11
S'R\xb8\x1e\x85\xebQ!@'
p2322
tp2323
Rp2324
sg17
g60
sg19
g20
sa(dp2325
g6
g7
(g11
S'\x1f\x85\xebQ\xb8\x1e\xe5\xbf'
p2326
tp2327
Rp2328
sg17
g65
sg19
g20
sa(dp2329
g6
g7
(g11
S'33333\x13M\xc0'
p2330
tp2331
Rp2332
sg17
g70
sg19
g20
sa(dp2333
g6
g7
(g11
S'\x8f\xc2\xf5(\\\xcf6\xc0'
p2334
tp2335
Rp2336
sg17
g75
sg19
g20
sa(dp2337
g6
g7
(g11
S'\x9a\x99\x99\x99\x99\x99\x1b@'
p2338
tp2339
Rp2340
sg17
g80
sg19
g20
sa(dp2341
g6
g7
(g11
S'=\n\xd7\xa3pmR\xc0'
p2342
tp2343
Rp2344
sg17
g85
sg19
g20
sa(dp2345
g6
g7
(g11
S'q=\n\xd7\xa3p4\xc0'
p2346
tp2347
Rp2348
sg17
g90
sg19
g20
sa(dp2349
g6
g7
(g11
S'\x8f\xc2\xf5(\\\x0f&@'
p2350
tp2351
Rp2352
sg17
g95
sg19
g20
sa(dp2353
g6
g7
(g11
S'\xaeG\xe1z\x14\xae.@'
p2354
tp2355
Rp2356
sg17
g100
sg19
g20
sa(dp2357
g6
g7
(g11
S'\xaeG\xe1z\x14.4@'
p2358
tp2359
Rp2360
sg17
g105
sg19
g20
sa(dp2361
g6
g7
(g11
S'\n\xd7\xa3p=\n0@'
p2362
tp2363
Rp2364
sg17
g110
sg19
g20
sa(dp2365
g6
g7
(g11
S'\xecQ\xb8\x1e\x85\xabC@'
p2366
tp2367
Rp2368
sg17
g115
sg19
g20
sa(dp2369
g6
g7
(g11
S')\\\x8f\xc2\xf5h=@'
p2370
tp2371
Rp2372
sg17
g120
sg19
g20
sa(dp2373
g6
g7
(g11
S'\x9a\x99\x99\x99\x99\x19-\xc0'
p2374
tp2375
Rp2376
sg17
g125
sg19
g20
sa(dp2377
g6
g7
(g11
S'\xe1z\x14\xaeG\xe1\x13\xc0'
p2378
tp2379
Rp2380
sg17
g130
sg19
g20
sa(dp2381
g6
g7
(g11
S'\xf6(\\\x8f\xc2\xb51\xc0'
p2382
tp2383
Rp2384
sg17
g135
sg19
g20
sa(dp2385
g6
g7
(g11
S'\xb8\x1e\x85\xebQ\xb8\xde?'
p2386
tp2387
Rp2388
sg17
g140
sg19
g20
sa(dp2389
g6
g7
(g11
S'\\\x8f\xc2\xf5(\\F\xc0'
p2390
tp2391
Rp2392
sg17
g145
sg19
g20
sa(dp2393
g6
g7
(g11
S'fffff\x06J@'
p2394
tp2395
Rp2396
sg17
g150
sg19
g20
sa(dp2397
g6
g7
(g11
S'fffff\xa63@'
p2398
tp2399
Rp2400
sg17
g155
sg19
g20
sa(dp2401
g6
g7
(g11
S'\xf6(\\\x8f\xc2\x85`\xc0'
p2402
tp2403
Rp2404
sg17
g160
sg19
g20
sasg161
g162
sa(dp2405
g2
I1
sg3
(lp2406
(dp2407
g6
g7
(g11
S'\xcd\xcc\xcc\xcc\xcc\\\\\xc0'
p2408
tp2409
Rp2410
sg17
g18
sg19
g20
sa(dp2411
g6
g7
(g11
S'\xaeG\xe1z\x14\xae\t\xc0'
p2412
tp2413
Rp2414
sg17
g25
sg19
g20
sa(dp2415
g6
g7
(g11
S'=\n\xd7\xa3p\xcdV@'
p2416
tp2417
Rp2418
sg17
g30
sg19
g20
sa(dp2419
g6
g7
(g11
S'P\xb8\x1e\x85\xebQ,@'
p2420
tp2421
Rp2422
sg17
g35
sg19
g20
sa(dp2423
g6
g7
(g11
S'\xa4p=\n\xd7\xa3@\xc0'
p2424
tp2425
Rp2426
sg17
g40
sg19
g20
sa(dp2427
g6
g7
(g11
S'\xcd\xcc\xcc\xcc\xcc\x8c5@'
p2428
tp2429
Rp2430
sg17
g45
sg19
g20
sa(dp2431
g6
g7
(g11
S'\xe1z\x14\xaeGQV@'
p2432
tp2433
Rp2434
sg17
g50
sg19
g20
sa(dp2435
g6
g7
(g11
S'\xecQ\xb8\x1e\x85\xeb\x03\xc0'
p2436
tp2437
Rp2438
sg17
g55
sg19
g20
sa(dp2439
g6
g7
(g11
S'\x14\xaeG\xe1z\x14#@'
p2440
tp2441
Rp2442
sg17
g60
sg19
g20
sa(dp2443
g6
g7
(g11
S'\x00\x00\x00\x00\x00\x00\xe8?'
p2444
tp2445
Rp2446
sg17
g65
sg19
g20
sa(dp2447
g6
g7
(g11
S'q=\n\xd7\xa3\xd0L\xc0'
p2448
tp2449
Rp2450
sg17
g70
sg19
g20
sa(dp2451
g6
g7
(g11
S'=\n\xd7\xa3p\xfd6\xc0'
p2452
tp2453
Rp2454
sg17
g75
sg19
g20
sa(dp2455
g6
g7
(g11
S'\n\xd7\xa3p=\n\x17@'
p2456
tp2457
Rp2458
sg17
g80
sg19
g20
sa(dp2459
g6
g7
(g11
S'\x1f\x85\xebQ\xb8~R\xc0'
p2460
tp2461
Rp2462
sg17
g85
sg19
g20
sa(dp2463
g6
g7
(g11
S'\x1f\x85\xebQ\xb8\x9e4\xc0'
p2464
tp2465
Rp2466
sg17
g90
sg19
g20
sa(dp2467
g6
g7
(g11
S'=\n\xd7\xa3p=)@'
p2468
tp2469
Rp2470
sg17
g95
sg19
g20
sa(dp2471
g6
g7
(g11
S'\xecQ\xb8\x1e\x85\xeb/@'
p2472
tp2473
Rp2474
sg17
g100
sg19
g20
sa(dp2475
g6
g7
(g11
S'\xb8\x1e\x85\xebQx3@'
p2476
tp2477
Rp2478
sg17
g105
sg19
g20
sa(dp2479
g6
g7
(g11
S'=\n\xd7\xa3p\xbd/@'
p2480
tp2481
Rp2482
sg17
g110
sg19
g20
sa(dp2483
g6
g7
(g11
S'\n\xd7\xa3p=\x8aC@'
p2484
tp2485
Rp2486
sg17
g115
sg19
g20
sa(dp2487
g6
g7
(g11
S'\xe1z\x14\xaeGa;@'
p2488
tp2489
Rp2490
sg17
g120
sg19
g20
sa(dp2491
g6
g7
(g11
S'\x9a\x99\x99\x99\x99\x19-\xc0'
p2492
tp2493
Rp2494
sg17
g125
sg19
g20
sa(dp2495
g6
g7
(g11
S'q=\n\xd7\xa3p\x18\xc0'
p2496
tp2497
Rp2498
sg17
g130
sg19
g20
sa(dp2499
g6
g7
(g11
S'q=\n\xd7\xa301\xc0'
p2500
tp2501
Rp2502
sg17
g135
sg19
g20
sa(dp2503
g6
g7
(g11
S'R\xb8\x1e\x85\xebQ\xf4?'
p2504
tp2505
Rp2506
sg17
g140
sg19
g20
sa(dp2507
g6
g7
(g11
S'\xb8\x1e\x85\xebQ\x18G\xc0'
p2508
tp2509
Rp2510
sg17
g145
sg19
g20
sa(dp2511
g6
g7
(g11
S'\xcd\xcc\xcc\xcc\xcc\xccF@'
p2512
tp2513
Rp2514
sg17
g150
sg19
g20
sa(dp2515
g6
g7
(g11
S'R\xb8\x1e\x85\xeb\xd13@'
p2516
tp2517
Rp2518
sg17
g155
sg19
g20
sa(dp2519
g6
g7
(g11
S'{\x14\xaeG\xe1\x82`\xc0'
p2520
tp2521
Rp2522
sg17
g160
sg19
g20
sasg161
g162
sa(dp2523
g2
I1
sg3
(lp2524
(dp2525
g6
g7
(g11
S'\\\x8f\xc2\xf5(\x1c[\xc0'
p2526
tp2527
Rp2528
sg17
g18
sg19
g20
sa(dp2529
g6
g7
(g11
S'H\xe1z\x14\xaeG\x0f\xc0'
p2530
tp2531
Rp2532
sg17
g25
sg19
g20
sa(dp2533
g6
g7
(g11
S'\x9a\x99\x99\x99\x99\xe9V@'
p2534
tp2535
Rp2536
sg17
g30
sg19
g20
sa(dp2537
g6
g7
(g11
S'P\xb8\x1e\x85\xebQ,@'
p2538
tp2539
Rp2540
sg17
g35
sg19
g20
sa(dp2541
g6
g7
(g11
S'\xa4p=\n\xd7\xa3@\xc0'
p2542
tp2543
Rp2544
sg17
g40
sg19
g20
sa(dp2545
g6
g7
(g11
S'\xa4p=\n\xd7#6@'
p2546
tp2547
Rp2548
sg17
g45
sg19
g20
sa(dp2549
g6
g7
(g11
S'\xe1z\x14\xaeGQV@'
p2550
tp2551
Rp2552
sg17
g50
sg19
g20
sa(dp2553
g6
g7
(g11
S'\x8f\xc2\xf5(\\\x8f\xfe\xbf'
p2554
tp2555
Rp2556
sg17
g55
sg19
g20
sa(dp2557
g6
g7
(g11
S'\xf6(\\\x8f\xc2\xf5#@'
p2558
tp2559
Rp2560
sg17
g60
sg19
g20
sa(dp2561
g6
g7
(g11
S')\\\x8f\xc2\xf5(\xf0?'
p2562
tp2563
Rp2564
sg17
g65
sg19
g20
sa(dp2565
g6
g7
(g11
S'\xc3\xf5(\\\x8f\xa2L\xc0'
p2566
tp2567
Rp2568
sg17
g70
sg19
g20
sa(dp2569
g6
g7
(g11
S'\x14\xaeG\xe1z\x147\xc0'
p2570
tp2571
Rp2572
sg17
g75
sg19
g20
sa(dp2573
g6
g7
(g11
S'\xe1z\x14\xaeG\xe1\x13@'
p2574
tp2575
Rp2576
sg17
g80
sg19
g20
sa(dp2577
g6
g7
(g11
S'\x9a\x99\x99\x99\x99\x89R\xc0'
p2578
tp2579
Rp2580
sg17
g85
sg19
g20
sa(dp2581
g6
g7
(g11
S'\x14\xaeG\xe1z\x945\xc0'
p2582
tp2583
Rp2584
sg17
g90
sg19
g20
sa(dp2585
g6
g7
(g11
S'=\n\xd7\xa3p=)@'
p2586
tp2587
Rp2588
sg17
g95
sg19
g20
sa(dp2589
g6
g7
(g11
S'{\x14\xaeG\xe1z0@'
p2590
tp2591
Rp2592
sg17
g100
sg19
g20
sa(dp2593
g6
g7
(g11
S'33333\xf32@'
p2594
tp2595
Rp2596
sg17
g105
sg19
g20
sa(dp2597
g6
g7
(g11
S'\x8f\xc2\xf5(\\\x8f/@'
p2598
tp2599
Rp2600
sg17
g110
sg19
g20
sa(dp2601
g6
g7
(g11
S'=\n\xd7\xa3p]C@'
p2602
tp2603
Rp2604
sg17
g115
sg19
g20
sa(dp2605
g6
g7
(g11
S'\xd7\xa3p=\n\x97:@'
p2606
tp2607
Rp2608
sg17
g120
sg19
g20
sa(dp2609
g6
g7
(g11
S'\x9a\x99\x99\x99\x99\x19-\xc0'
p2610
tp2611
Rp2612
sg17
g125
sg19
g20
sa(dp2613
g6
g7
(g11
S'\xecQ\xb8\x1e\x85\xeb\x1a\xc0'
p2614
tp2615
Rp2616
sg17
g130
sg19
g20
sa(dp2617
g6
g7
(g11
S'\xa4p=\n\xd7\xe31\xc0'
p2618
tp2619
Rp2620
sg17
g135
sg19
g20
sa(dp2621
g6
g7
(g11
S'\x8f\xc2\xf5(\\\x8f\x00@'
p2622
tp2623
Rp2624
sg17
g140
sg19
g20
sa(dp2625
g6
g7
(g11
S'=\n\xd7\xa3p=G\xc0'
p2626
tp2627
Rp2628
sg17
g145
sg19
g20
sa(dp2629
g6
g7
(g11
S'\xcd\xcc\xcc\xcc\xcc\xccF@'
p2630
tp2631
Rp2632
sg17
g150
sg19
g20
sa(dp2633
g6
g7
(g11
S'q=\n\xd7\xa3\xb07@'
p2634
tp2635
Rp2636
sg17
g155
sg19
g20
sa(dp2637
g6
g7
(g11
S'\xcd\xcc\xcc\xcc\xcc\x8c_\xc0'
p2638
tp2639
Rp2640
sg17
g160
sg19
g20
sasg161
g162
sa(dp2641
g2
I1
sg3
(lp2642
(dp2643
g6
g7
(g11
S'q=\n\xd7\xa3\x10[\xc0'
p2644
tp2645
Rp2646
sg17
g18
sg19
g20
sa(dp2647
g6
g7
(g11
S'\xc3\xf5(\\\x8f\xc2\x11\xc0'
p2648
tp2649
Rp2650
sg17
g25
sg19
g20
sa(dp2651
g6
g7
(g11
S'\x9a\x99\x99\x99\x99\xe9V@'
p2652
tp2653
Rp2654
sg17
g30
sg19
g20
sa(dp2655
g6
g7
(g11
S'<\n\xd7\xa3p\xbd+@'
p2656
tp2657
Rp2658
sg17
g35
sg19
g20
sa(dp2659
g6
g7
(g11
S'\x8f\xc2\xf5(\\\xef@\xc0'
p2660
tp2661
Rp2662
sg17
g40
sg19
g20
sa(dp2663
g6
g7
(g11
S'\xa4p=\n\xd7#6@'
p2664
tp2665
Rp2666
sg17
g45
sg19
g20
sa(dp2667
g6
g7
(g11
S'\xe1z\x14\xaeGQV@'
p2668
tp2669
Rp2670
sg17
g50
sg19
g20
sa(dp2671
g6
g7
(g11
S'\x8f\xc2\xf5(\\\x8f\xfe\xbf'
p2672
tp2673
Rp2674
sg17
g55
sg19
g20
sa(dp2675
g6
g7
(g11
S')\\\x8f\xc2\xf5\xa8$@'
p2676
tp2677
Rp2678
sg17
g60
sg19
g20
sa(dp2679
g6
g7
(g11
S')\\\x8f\xc2\xf5(\xf0?'
p2680
tp2681
Rp2682
sg17
g65
sg19
g20
sa(dp2683
g6
g7
(g11
S'\xb8\x1e\x85\xebQ\x98L\xc0'
p2684
tp2685
Rp2686
sg17
g70
sg19
g20
sa(dp2687
g6
g7
(g11
S'=\n\xd7\xa3p\xfd6\xc0'
p2688
tp2689
Rp2690
sg17
g75
sg19
g20
sa(dp2691
g6
g7
(g11
S'\xcd\xcc\xcc\xcc\xcc\xcc\x12@'
p2692
tp2693
Rp2694
sg17
g80
sg19
g20
sa(dp2695
g6
g7
(g11
S'\x85\xebQ\xb8\x1e\x95R\xc0'
p2696
tp2697
Rp2698
sg17
g85
sg19
g20
sa(dp2699
g6
g7
(g11
S'\\\x8f\xc2\xf5(\x1c6\xc0'
p2700
tp2701
Rp2702
sg17
g90
sg19
g20
sa(dp2703
g6
g7
(g11
S'=\n\xd7\xa3p=)@'
p2704
tp2705
Rp2706
sg17
g95
sg19
g20
sa(dp2707
g6
g7
(g11
S'\\\x8f\xc2\xf5(\\1@'
p2708
tp2709
Rp2710
sg17
g100
sg19
g20
sa(dp2711
g6
g7
(g11
S'\xecQ\xb8\x1e\x85k2@'
p2712
tp2713
Rp2714
sg17
g105
sg19
g20
sa(dp2715
g6
g7
(g11
S'\\\x8f\xc2\xf5(\xdc.@'
p2716
tp2717
Rp2718
sg17
g110
sg19
g20
sa(dp2719
g6
g7
(g11
S'\xd7\xa3p=\n\xf7B@'
p2720
tp2721
Rp2722
sg17
g115
sg19
g20
sa(dp2723
g6
g7
(g11
S'\xa4p=\n\xd7\xe39@'
p2724
tp2725
Rp2726
sg17
g120
sg19
g20
sa(dp2727
g6
g7
(g11
S'\x9a\x99\x99\x99\x99\x19-\xc0'
p2728
tp2729
Rp2730
sg17
g125
sg19
g20
sa(dp2731
g6
g7
(g11
S'\xc3\xf5(\\\x8f\xc2\x1e\xc0'
p2732
tp2733
Rp2734
sg17
g130
sg19
g20
sa(dp2735
g6
g7
(g11
S'\xc3\xf5(\\\x8f\x822\xc0'
p2736
tp2737
Rp2738
sg17
g135
sg19
g20
sa(dp2739
g6
g7
(g11
S')\\\x8f\xc2\xf5(\x06@'
p2740
tp2741
Rp2742
sg17
g140
sg19
g20
sa(dp2743
g6
g7
(g11
S'=\n\xd7\xa3p=G\xc0'
p2744
tp2745
Rp2746
sg17
g145
sg19
g20
sa(dp2747
g6
g7
(g11
S'\xcd\xcc\xcc\xcc\xcc\xccF@'
p2748
tp2749
Rp2750
sg17
g150
sg19
g20
sa(dp2751
g6
g7
(g11
S'ffffff8@'
p2752
tp2753
Rp2754
sg17
g155
sg19
g20
sa(dp2755
g6
g7
(g11
S'\x14\xaeG\xe1zT_\xc0'
p2756
tp2757
Rp2758
sg17
g160
sg19
g20
sasg161
g162
sa(dp2759
g2
I1
sg3
(lp2760
(dp2761
g6
g7
(g11
S'\xf6(\\\x8f\xc2\xd5W\xc0'
p2762
tp2763
Rp2764
sg17
g18
sg19
g20
sa(dp2765
g6
g7
(g11
S'\xcd\xcc\xcc\xcc\xcc\xcc\x12\xc0'
p2766
tp2767
Rp2768
sg17
g25
sg19
g20
sa(dp2769
g6
g7
(g11
S'\\\x8f\xc2\xf5(\x1cW@'
p2770
tp2771
Rp2772
sg17
g30
sg19
g20
sa(dp2773
g6
g7
(g11
S'(\\\x8f\xc2\xf5(+@'
p2774
tp2775
Rp2776
sg17
g35
sg19
g20
sa(dp2777
g6
g7
(g11
S'\x14\xaeG\xe1z\x14A\xc0'
p2778
tp2779
Rp2780
sg17
g40
sg19
g20
sa(dp2781
g6
g7
(g11
S'\xd7\xa3p=\n\x174@'
p2782
tp2783
Rp2784
sg17
g45
sg19
g20
sa(dp2785
g6
g7
(g11
S'\xe1z\x14\xaeGQV@'
p2786
tp2787
Rp2788
sg17
g50
sg19
g20
sa(dp2789
g6
g7
(g11
S'\n\xd7\xa3p=\xfaS@'
p2790
tp2791
Rp2792
sg17
g55
sg19
g20
sa(dp2793
g6
g7
(g11
S'\n\xd7\xa3p=\x8a%@'
p2794
tp2795
Rp2796
sg17
g60
sg19
g20
sa(dp2797
g6
g7
(g11
S')\\\x8f\xc2\xf5(\xf0?'
p2798
tp2799
Rp2800
sg17
g65
sg19
g20
sa(dp2801
g6
g7
(g11
S'\xb8\x1e\x85\xebQ\x98L\xc0'
p2802
tp2803
Rp2804
sg17
g70
sg19
g20
sa(dp2805
g6
g7
(g11
S'\xf6(\\\x8f\xc2u6\xc0'
p2806
tp2807
Rp2808
sg17
g75
sg19
g20
sa(dp2809
g6
g7
(g11
S'\xb8\x1e\x85\xebQ\xb8\x10@'
p2810
tp2811
Rp2812
sg17
g80
sg19
g20
sa(dp2813
g6
g7
(g11
S'q=\n\xd7\xa3\xa0R\xc0'
p2814
tp2815
Rp2816
sg17
g85
sg19
g20
sa(dp2817
g6
g7
(g11
S'\x1f\x85\xebQ\xb8\x1eA\xc0'
p2818
tp2819
Rp2820
sg17
g90
sg19
g20
sa(dp2821
g6
g7
(g11
S'=\n\xd7\xa3p=)@'
p2822
tp2823
Rp2824
sg17
g95
sg19
g20
sa(dp2825
g6
g7
(g11
S'fffff&2@'
p2826
tp2827
Rp2828
sg17
g100
sg19
g20
sa(dp2829
g6
g7
(g11
S'\xcd\xcc\xcc\xcc\xcc\xcc1@'
p2830
tp2831
Rp2832
sg17
g105
sg19
g20
sa(dp2833
g6
g7
(g11
S')\\\x8f\xc2\xf5(.@'
p2834
tp2835
Rp2836
sg17
g110
sg19
g20
sa(dp2837
g6
g7
(g11
S'R\xb8\x1e\x85\xeb\x91B@'
p2838
tp2839
Rp2840
sg17
g115
sg19
g20
sa(dp2841
g6
g7
(g11
S'q=\n\xd7\xa309@'
p2842
tp2843
Rp2844
sg17
g120
sg19
g20
sa(dp2845
g6
g7
(g11
S'\x9a\x99\x99\x99\x99\x19-\xc0'
p2846
tp2847
Rp2848
sg17
g125
sg19
g20
sa(dp2849
g6
g7
(g11
S'333333"\xc0'
p2850
tp2851
Rp2852
sg17
g130
sg19
g20
sa(dp2853
g6
g7
(g11
S'fffff\xa63\xc0'
p2854
tp2855
Rp2856
sg17
g135
sg19
g20
sa(dp2857
g6
g7
(g11
S'{\x14\xaeG\xe1z\x0c@'
p2858
tp2859
Rp2860
sg17
g140
sg19
g20
sa(dp2861
g6
g7
(g11
S'=\n\xd7\xa3p=G\xc0'
p2862
tp2863
Rp2864
sg17
g145
sg19
g20
sa(dp2865
g6
g7
(g11
S'\xe1z\x14\xaeG\x81F@'
p2866
tp2867
Rp2868
sg17
g150
sg19
g20
sa(dp2869
g6
g7
(g11
S'\xd7\xa3p=\n\xd7$@'
p2870
tp2871
Rp2872
sg17
g155
sg19
g20
sa(dp2873
g6
g7
(g11
S'fffff.c\xc0'
p2874
tp2875
Rp2876
sg17
g160
sg19
g20
sasg161
g162
sa(dp2877
g2
I1
sg3
(lp2878
(dp2879
g6
g7
(g11
S'\x00\x00\x00\x00\x00\xd0W\xc0'
p2880
tp2881
Rp2882
sg17
g18
sg19
g20
sa(dp2883
g6
g7
(g11
S'\xf6(\\\x8f\xc2\xf5\x08\xc0'
p2884
tp2885
Rp2886
sg17
g25
sg19
g20
sa(dp2887
g6
g7
(g11
S'=\n\xd7\xa3p\x9dU@'
p2888
tp2889
Rp2890
sg17
g30
sg19
g20
sa(dp2891
g6
g7
(g11
S'(\\\x8f\xc2\xf5(+@'
p2892
tp2893
Rp2894
sg17
g35
sg19
g20
sa(dp2895
g6
g7
(g11
S'\x00\x00\x00\x00\x00`A\xc0'
p2896
tp2897
Rp2898
sg17
g40
sg19
g20
sa(dp2899
g6
g7
(g11
S'\xb8\x1e\x85\xebQ\xf84@'
p2900
tp2901
Rp2902
sg17
g45
sg19
g20
sa(dp2903
g6
g7
(g11
S'\xe1z\x14\xaeGQV@'
p2904
tp2905
Rp2906
sg17
g50
sg19
g20
sa(dp2907
g6
g7
(g11
S'\x00\x00\x00\x00\x00 T@'
p2908
tp2909
Rp2910
sg17
g55
sg19
g20
sa(dp2911
g6
g7
(g11
S'\x9a\x99\x99\x99\x99\x199@'
p2912
tp2913
Rp2914
sg17
g60
sg19
g20
sa(dp2915
g6
g7
(g11
S'\x9a\x99\x99\x99\x99\x99\xf1?'
p2916
tp2917
Rp2918
sg17
g65
sg19
g20
sa(dp2919
g6
g7
(g11
S'\x00\x00\x00\x00\x00`L\xc0'
p2920
tp2921
Rp2922
sg17
g70
sg19
g20
sa(dp2923
g6
g7
(g11
S"\xcd\xcc\xcc\xcc\xccL'\xc0"
p2924
tp2925
Rp2926
sg17
g75
sg19
g20
sa(dp2927
g6
g7
(g11
S'\x9a\x99\x99\x99\x99\x99\x07@'
p2928
tp2929
Rp2930
sg17
g80
sg19
g20
sa(dp2931
g6
g7
(g11
S'\xecQ\xb8\x1e\x85\xabR\xc0'
p2932
tp2933
Rp2934
sg17
g85
sg19
g20
sa(dp2935
g6
g7
(g11
S'\xa4p=\n\xd7\x83A\xc0'
p2936
tp2937
Rp2938
sg17
g90
sg19
g20
sa(dp2939
g6
g7
(g11
S'\xd7\xa3p=\n\xd70@'
p2940
tp2941
Rp2942
sg17
g95
sg19
g20
sa(dp2943
g6
g7
(g11
S'\xc3\xf5(\\\x8fB<@'
p2944
tp2945
Rp2946
sg17
g100
sg19
g20
sa(dp2947
g6
g7
(g11
S')\\\x8f\xc2\xf5\xa8$@'
p2948
tp2949
Rp2950
sg17
g105
sg19
g20
sa(dp2951
g6
g7
(g11
S'\x1f\x85\xebQ\xb8\x9e-@'
p2952
tp2953
Rp2954
sg17
g110
sg19
g20
sa(dp2955
g6
g7
(g11
S'\xd7\xa3p=\n\x17B@'
p2956
tp2957
Rp2958
sg17
g115
sg19
g20
sa(dp2959
g6
g7
(g11
S'\x9a\x99\x99\x99\x99\x997@'
p2960
tp2961
Rp2962
sg17
g120
sg19
g20
sa(dp2963
g6
g7
(g11
S'{\x14\xaeG\xe1z\x12\xc0'
p2964
tp2965
Rp2966
sg17
g125
sg19
g20
sa(dp2967
g6
g7
(g11
S'\xf6(\\\x8f\xc2\xf5#\xc0'
p2968
tp2969
Rp2970
sg17
g130
sg19
g20
sa(dp2971
g6
g7
(g11
S'\x00\x00\x00\x00\x00\x004\xc0'
p2972
tp2973
Rp2974
sg17
g135
sg19
g20
sa(dp2975
g6
g7
(g11
S'\x85\xebQ\xb8\x1e\x85\x13\xc0'
p2976
tp2977
Rp2978
sg17
g140
sg19
g20
sa(dp2979
g6
g7
(g11
S'=\n\xd7\xa3p=G\xc0'
p2980
tp2981
Rp2982
sg17
g145
sg19
g20
sa(dp2983
g6
g7
(g11
S'\xcd\xcc\xcc\xcc\xcc\xccF@'
p2984
tp2985
Rp2986
sg17
g150
sg19
g20
sa(dp2987
g6
g7
(g11
S'\\\x8f\xc2\xf5(\\%@'
p2988
tp2989
Rp2990
sg17
g155
sg19
g20
sa(dp2991
g6
g7
(g11
S'\xaeG\xe1z\x14&c\xc0'
p2992
tp2993
Rp2994
sg17
g160
sg19
g20
sasg161
g162
sa(dp2995
g2
I1
sg3
(lp2996
(dp2997
g6
g7
(g11
S'\n\xd7\xa3p=\xcaW\xc0'
p2998
tp2999
Rp3000
sg17
g18
sg19
g20
sa(dp3001
g6
g7
(g11
S'\\\x8f\xc2\xf5(\\\x1d\xc0'
p3002
tp3003
Rp3004
sg17
g25
sg19
g20
sa(dp3005
g6
g7
(g11
S'R\xb8\x1e\x85\xeb!Y@'
p3006
tp3007
Rp3008
sg17
g30
sg19
g20
sa(dp3009
g6
g7
(g11
S'\x90\xc2\xf5(\\\x8f*@'
p3010
tp3011
Rp3012
sg17
g35
sg19
g20
sa(dp3013
g6
g7
(g11
S'\x00\x00\x00\x00\x00`A\xc0'
p3014
tp3015
Rp3016
sg17
g40
sg19
g20
sa(dp3017
g6
g7
(g11
S'\xb8\x1e\x85\xebQ\xf84@'
p3018
tp3019
Rp3020
sg17
g45
sg19
g20
sa(dp3021
g6
g7
(g11
S'\xd7\xa3p=\nWV@'
p3022
tp3023
Rp3024
sg17
g50
sg19
g20
sa(dp3025
g6
g7
(g11
S'\xf6(\\\x8f\xc2ET@'
p3026
tp3027
Rp3028
sg17
g55
sg19
g20
sa(dp3029
g6
g7
(g11
S'R\xb8\x1e\x85\xebQ.@'
p3030
tp3031
Rp3032
sg17
g60
sg19
g20
sa(dp3033
g6
g7
(g11
S'\x9a\x99\x99\x99\x99\x99\xf1?'
p3034
tp3035
Rp3036
sg17
g65
sg19
g20
sa(dp3037
g6
g7
(g11
S'333333L\xc0'
p3038
tp3039
Rp3040
sg17
g70
sg19
g20
sa(dp3041
g6
g7
(g11
S')\\\x8f\xc2\xf5(7\xc0'
p3042
tp3043
Rp3044
sg17
g75
sg19
g20
sa(dp3045
g6
g7
(g11
S'\x8f\xc2\xf5(\\\x8f\x14@'
p3046
tp3047
Rp3048
sg17
g80
sg19
g20
sa(dp3049
g6
g7
(g11
S'\xd7\xa3p=\n\xb7R\xc0'
p3050
tp3051
Rp3052
sg17
g85
sg19
g20
sa(dp3053
g6
g7
(g11
S'{\x14\xaeG\xe1\x9aA\xc0'
p3054
tp3055
Rp3056
sg17
g90
sg19
g20
sa(dp3057
g6
g7
(g11
S'\xa4p=\n\xd7\xe31@'
p3058
tp3059
Rp3060
sg17
g95
sg19
g20
sa(dp3061
g6
g7
(g11
S'q=\n\xd7\xa3p<@'
p3062
tp3063
Rp3064
sg17
g100
sg19
g20
sa(dp3065
g6
g7
(g11
S'\xaeG\xe1z\x14.%@'
p3066
tp3067
Rp3068
sg17
g105
sg19
g20
sa(dp3069
g6
g7
(g11
S'\x00\x00\x00\x00\x00\x80.@'
p3070
tp3071
Rp3072
sg17
g110
sg19
g20
sa(dp3073
g6
g7
(g11
S')\\\x8f\xc2\xf5\xe8A@'
p3074
tp3075
Rp3076
sg17
g115
sg19
g20
sa(dp3077
g6
g7
(g11
S'\x8f\xc2\xf5(\\\xcf6@'
p3078
tp3079
Rp3080
sg17
g120
sg19
g20
sa(dp3081
g6
g7
(g11
S'\xcd\xcc\xcc\xcc\xcc\xcc\x12\xc0'
p3082
tp3083
Rp3084
sg17
g125
sg19
g20
sa(dp3085
g6
g7
(g11
S'\xd7\xa3p=\n\xd7$\xc0'
p3086
tp3087
Rp3088
sg17
g130
sg19
g20
sa(dp3089
g6
g7
(g11
S'33333\xb34\xc0'
p3090
tp3091
Rp3092
sg17
g135
sg19
g20
sa(dp3093
g6
g7
(g11
S'\x85\xebQ\xb8\x1e\x85\x13\xc0'
p3094
tp3095
Rp3096
sg17
g140
sg19
g20
sa(dp3097
g6
g7
(g11
S'\xb8\x1e\x85\xebQ\x18G\xc0'
p3098
tp3099
Rp3100
sg17
g145
sg19
g20
sa(dp3101
g6
g7
(g11
S'\xe1z\x14\xaeG\x81F@'
p3102
tp3103
Rp3104
sg17
g150
sg19
g20
sa(dp3105
g6
g7
(g11
S')\\\x8f\xc2\xf5\xa8$@'
p3106
tp3107
Rp3108
sg17
g155
sg19
g20
sa(dp3109
g6
g7
(g11
S'{\x14\xaeG\xe1\x1ac\xc0'
p3110
tp3111
Rp3112
sg17
g160
sg19
g20
sasg161
g162
sa(dp3113
g2
I1
sg3
(lp3114
(dp3115
g6
g7
(g11
S'\x8f\xc2\xf5(\\\xbfW\xc0'
p3116
tp3117
Rp3118
sg17
g18
sg19
g20
sa(dp3119
g6
g7
(g11
S'\x9a\x99\x99\x99\x99\x19*\xc0'
p3120
tp3121
Rp3122
sg17
g25
sg19
g20
sa(dp3123
g6
g7
(g11
S'=\n\xd7\xa3p\xfdW@'
p3124
tp3125
Rp3126
sg17
g30
sg19
g20
sa(dp3127
g6
g7
(g11
S'hfffff)@'
p3128
tp3129
Rp3130
sg17
g35
sg19
g20
sa(dp3131
g6
g7
(g11
S'\x00\x00\x00\x00\x00`A\xc0'
p3132
tp3133
Rp3134
sg17
g40
sg19
g20
sa(dp3135
g6
g7
(g11
S'\xb8\x1e\x85\xebQ\xf84@'
p3136
tp3137
Rp3138
sg17
g45
sg19
g20
sa(dp3139
g6
g7
(g11
S'\xd7\xa3p=\nWV@'
p3140
tp3141
Rp3142
sg17
g50
sg19
g20
sa(dp3143
g6
g7
(g11
S'\x85\xebQ\xb8\x1e\xd5S@'
p3144
tp3145
Rp3146
sg17
g55
sg19
g20
sa(dp3147
g6
g7
(g11
S'R\xb8\x1e\x85\xeb\x910@'
p3148
tp3149
Rp3150
sg17
g60
sg19
g20
sa(dp3151
g6
g7
(g11
S'\x9a\x99\x99\x99\x99\x99\xf1?'
p3152
tp3153
Rp3154
sg17
g65
sg19
g20
sa(dp3155
g6
g7
(g11
S'\x85\xebQ\xb8\x1e\x05L\xc0'
p3156
tp3157
Rp3158
sg17
g70
sg19
g20
sa(dp3159
g6
g7
(g11
S'{\x14\xaeG\xe1z8\xc0'
p3160
tp3161
Rp3162
sg17
g75
sg19
g20
sa(dp3163
g6
g7
(g11
S'q=\n\xd7\xa3p @'
p3164
tp3165
Rp3166
sg17
g80
sg19
g20
sa(dp3167
g6
g7
(g11
S'H\xe1z\x14\xae\xc7R\xc0'
p3168
tp3169
Rp3170
sg17
g85
sg19
g20
sa(dp3171
g6
g7
(g11
S'\x8f\xc2\xf5(\\OB\xc0'
p3172
tp3173
Rp3174
sg17
g90
sg19
g20
sa(dp3175
g6
g7
(g11
S'{\x14\xaeG\xe1z0@'
p3176
tp3177
Rp3178
sg17
g95
sg19
g20
sa(dp3179
g6
g7
(g11
S'\x00\x00\x00\x00\x00\xc00@'
p3180
tp3181
Rp3182
sg17
g100
sg19
g20
sa(dp3183
g6
g7
(g11
S'=\n\xd7\xa3p}5@'
p3184
tp3185
Rp3186
sg17
g105
sg19
g20
sa(dp3187
g6
g7
(g11
S'\x14\xaeG\xe1z\x14\x1e@'
p3188
tp3189
Rp3190
sg17
g110
sg19
g20
sa(dp3191
g6
g7
(g11
S'ffffff\x1e@'
p3192
tp3193
Rp3194
sg17
g115
sg19
g20
sa(dp3195
g6
g7
(g11
S'\xf6(\\\x8f\xc2u6\xc0'
p3196
tp3197
Rp3198
sg17
g120
sg19
g20
sa(dp3199
g6
g7
(g11
S'\xcd\xcc\xcc\xcc\xcc\xcc\x12\xc0'
p3200
tp3201
Rp3202
sg17
g125
sg19
g20
sa(dp3203
g6
g7
(g11
S'\xcd\xcc\xcc\xcc\xcc\xcc\x18@'
p3204
tp3205
Rp3206
sg17
g130
sg19
g20
sa(dp3207
g6
g7
(g11
S'R\xb8\x1e\x85\xebQ!\xc0'
p3208
tp3209
Rp3210
sg17
g135
sg19
g20
sa(dp3211
g6
g7
(g11
S'{\x14\xaeG\xe1z\xa4\xbf'
p3212
tp3213
Rp3214
sg17
g140
sg19
g20
sa(dp3215
g6
g7
(g11
S'=\n\xd7\xa3p=G\xc0'
p3216
tp3217
Rp3218
sg17
g145
sg19
g20
sa(dp3219
g6
g7
(g11
S'\xcd\xcc\xcc\xcc\xcc\xccF@'
p3220
tp3221
Rp3222
sg17
g150
sg19
g20
sa(dp3223
g6
g7
(g11
S'\n\xd7\xa3p=\x8a%@'
p3224
tp3225
Rp3226
sg17
g155
sg19
g20
sa(dp3227
g6
g7
(g11
S'\x8f\xc2\xf5(\\\x0fc\xc0'
p3228
tp3229
Rp3230
sg17
g160
sg19
g20
sasg161
g162
sa(dp3231
g2
I1
sg3
(lp3232
(dp3233
g6
g7
(g11
S'\xa4p=\n\xd7\xb3W\xc0'
p3234
tp3235
Rp3236
sg17
g18
sg19
g20
sa(dp3237
g6
g7
(g11
S'fffff\xe6"\xc0'
p3238
tp3239
Rp3240
sg17
g25
sg19
g20
sa(dp3241
g6
g7
(g11
S'\\\x8f\xc2\xf5(\x1cW@'
p3242
tp3243
Rp3244
sg17
g30
sg19
g20
sa(dp3245
g6
g7
(g11
S'\xcc\xcc\xcc\xcc\xcc\xcc(@'
p3246
tp3247
Rp3248
sg17
g35
sg19
g20
sa(dp3249
g6
g7
(g11
S'\x00\x00\x00\x00\x00`A\xc0'
p3250
tp3251
Rp3252
sg17
g40
sg19
g20
sa(dp3253
g6
g7
(g11
S'\xb8\x1e\x85\xebQ\xf84@'
p3254
tp3255
Rp3256
sg17
g45
sg19
g20
sa(dp3257
g6
g7
(g11
S'\xe1z\x14\xaeGQV@'
p3258
tp3259
Rp3260
sg17
g50
sg19
g20
sa(dp3261
g6
g7
(g11
S'\x85\xebQ\xb8\x1e\xd5S@'
p3262
tp3263
Rp3264
sg17
g55
sg19
g20
sa(dp3265
g6
g7
(g11
S'\x14\xaeG\xe1z\x94,@'
p3266
tp3267
Rp3268
sg17
g60
sg19
g20
sa(dp3269
g6
g7
(g11
S'\x9a\x99\x99\x99\x99\x99\xf1?'
p3270
tp3271
Rp3272
sg17
g65
sg19
g20
sa(dp3273
g6
g7
(g11
S'\xc3\xf5(\\\x8f\xc2K\xc0'
p3274
tp3275
Rp3276
sg17
g70
sg19
g20
sa(dp3277
g6
g7
(g11
S'\x00\x00\x00\x00\x00@7\xc0'
p3278
tp3279
Rp3280
sg17
g75
sg19
g20
sa(dp3281
g6
g7
(g11
S'=\n\xd7\xa3p=)@'
p3282
tp3283
Rp3284
sg17
g80
sg19
g20
sa(dp3285
g6
g7
(g11
S'33333\xd3R\xc0'
p3286
tp3287
Rp3288
sg17
g85
sg19
g20
sa(dp3289
g6
g7
(g11
S'=\n\xd7\xa3p\x9dB\xc0'
p3290
tp3291
Rp3292
sg17
g90
sg19
g20
sa(dp3293
g6
g7
(g11
S'\x8f\xc2\xf5(\\\x8f3@'
p3294
tp3295
Rp3296
sg17
g95
sg19
g20
sa(dp3297
g6
g7
(g11
S'q=\n\xd7\xa301@'
p3298
tp3299
Rp3300
sg17
g100
sg19
g20
sa(dp3301
g6
g7
(g11
S'\xecQ\xb8\x1e\x85k2@'
p3302
tp3303
Rp3304
sg17
g105
sg19
g20
sa(dp3305
g6
g7
(g11
S'\xaeG\xe1z\x14.(@'
p3306
tp3307
Rp3308
sg17
g110
sg19
g20
sa(dp3309
g6
g7
(g11
S'\\\x8f\xc2\xf5(\\\x10@'
p3310
tp3311
Rp3312
sg17
g115
sg19
g20
sa(dp3313
g6
g7
(g11
S'q=\n\xd7\xa3\xb0A\xc0'
p3314
tp3315
Rp3316
sg17
g120
sg19
g20
sa(dp3317
g6
g7
(g11
S'\xcd\xcc\xcc\xcc\xcc\xcc\x12\xc0'
p3318
tp3319
Rp3320
sg17
g125
sg19
g20
sa(dp3321
g6
g7
(g11
S'\x1f\x85\xebQ\xb8\x9e @'
p3322
tp3323
Rp3324
sg17
g130
sg19
g20
sa(dp3325
g6
g7
(g11
S'33333\xb3+\xc0'
p3326
tp3327
Rp3328
sg17
g135
sg19
g20
sa(dp3329
g6
g7
(g11
S'333333\x01@'
p3330
tp3331
Rp3332
sg17
g140
sg19
g20
sa(dp3333
g6
g7
(g11
S'\xb8\x1e\x85\xebQ\x18G\xc0'
p3334
tp3335
Rp3336
sg17
g145
sg19
g20
sa(dp3337
g6
g7
(g11
S'\xe1z\x14\xaeG\x81F@'
p3338
tp3339
Rp3340
sg17
g150
sg19
g20
sa(dp3341
g6
g7
(g11
S'\xecQ\xb8\x1e\x85k&@'
p3342
tp3343
Rp3344
sg17
g155
sg19
g20
sa(dp3345
g6
g7
(g11
S'\xcd\xcc\xcc\xcc\xcc\x0cc\xc0'
p3346
tp3347
Rp3348
sg17
g160
sg19
g20
sasg161
g162
sa(dp3349
g2
I1
sg3
(lp3350
(dp3351
g6
g7
(g11
S'\x1f\x85\xebQ\xb8\xaeW\xc0'
p3352
tp3353
Rp3354
sg17
g18
sg19
g20
sa(dp3355
g6
g7
(g11
S'\n\xd7\xa3p=\x8a%@'
p3356
tp3357
Rp3358
sg17
g25
sg19
g20
sa(dp3359
g6
g7
(g11
S'R\xb8\x1e\x85\xeb!Q@'
p3360
tp3361
Rp3362
sg17
g30
sg19
g20
sa(dp3363
g6
g7
(g11
S'\xcc\xcc\xcc\xcc\xcc\xcc(@'
p3364
tp3365
Rp3366
sg17
g35
sg19
g20
sa(dp3367
g6
g7
(g11
S'\x00\x00\x00\x00\x00`A\xc0'
p3368
tp3369
Rp3370
sg17
g40
sg19
g20
sa(dp3371
g6
g7
(g11
S'\xb8\x1e\x85\xebQ\xf84@'
p3372
tp3373
Rp3374
sg17
g45
sg19
g20
sa(dp3375
g6
g7
(g11
S'\xe1z\x14\xaeGQV@'
p3376
tp3377
Rp3378
sg17
g50
sg19
g20
sa(dp3379
g6
g7
(g11
S'\x85\xebQ\xb8\x1e\xd5S@'
p3380
tp3381
Rp3382
sg17
g55
sg19
g20
sa(dp3383
g6
g7
(g11
S'\\\x8f\xc2\xf5(\\\x1d@'
p3384
tp3385
Rp3386
sg17
g60
sg19
g20
sa(dp3387
g6
g7
(g11
S'\x9a\x99\x99\x99\x99\x99\xf1?'
p3388
tp3389
Rp3390
sg17
g65
sg19
g20
sa(dp3391
g6
g7
(g11
S'\n\xd7\xa3p=\x8aK\xc0'
p3392
tp3393
Rp3394
sg17
g70
sg19
g20
sa(dp3395
g6
g7
(g11
S'\x8f\xc2\xf5(\\\x8f\x1a\xc0'
p3396
tp3397
Rp3398
sg17
g75
sg19
g20
sa(dp3399
g6
g7
(g11
S'\x14\xaeG\xe1zT:@'
p3400
tp3401
Rp3402
sg17
g80
sg19
g20
sa(dp3403
g6
g7
(g11
S'\xaeG\xe1z\x14\xdeR\xc0'
p3404
tp3405
Rp3406
sg17
g85
sg19
g20
sa(dp3407
g6
g7
(g11
S'\xc3\xf5(\\\x8f\x02C\xc0'
p3408
tp3409
Rp3410
sg17
g90
sg19
g20
sa(dp3411
g6
g7
(g11
S'\n\xd7\xa3p=J6@'
p3412
tp3413
Rp3414
sg17
g95
sg19
g20
sa(dp3415
g6
g7
(g11
S'\\\x8f\xc2\xf5(\\1@'
p3416
tp3417
Rp3418
sg17
g100
sg19
g20
sa(dp3419
g6
g7
(g11
S'\xe1z\x14\xaeG\xe1\x13@'
p3420
tp3421
Rp3422
sg17
g105
sg19
g20
sa(dp3423
g6
g7
(g11
S'\x9a\x99\x99\x99\x99\x191@'
p3424
tp3425
Rp3426
sg17
g110
sg19
g20
sa(dp3427
g6
g7
(g11
S'\n\xd7\xa3p=\n\x11@'
p3428
tp3429
Rp3430
sg17
g115
sg19
g20
sa(dp3431
g6
g7
(g11
S'\x85\xebQ\xb8\x1e\x05H\xc0'
p3432
tp3433
Rp3434
sg17
g120
sg19
g20
sa(dp3435
g6
g7
(g11
S'{\x14\xaeG\xe1z\x12\xc0'
p3436
tp3437
Rp3438
sg17
g125
sg19
g20
sa(dp3439
g6
g7
(g11
S'R\xb8\x1e\x85\xebQ!@'
p3440
tp3441
Rp3442
sg17
g130
sg19
g20
sa(dp3443
g6
g7
(g11
S'33333\xf32\xc0'
p3444
tp3445
Rp3446
sg17
g135
sg19
g20
sa(dp3447
g6
g7
(g11
S'\x9a\x99\x99\x99\x99\x99\x1b@'
p3448
tp3449
Rp3450
sg17
g140
sg19
g20
sa(dp3451
g6
g7
(g11
S'\xb8\x1e\x85\xebQ\x18G\xc0'
p3452
tp3453
Rp3454
sg17
g145
sg19
g20
sa(dp3455
g6
g7
(g11
S'\xe1z\x14\xaeG\x81F@'
p3456
tp3457
Rp3458
sg17
g150
sg19
g20
sa(dp3459
g6
g7
(g11
S'q=\n\xd7\xa3\xf0&@'
p3460
tp3461
Rp3462
sg17
g155
sg19
g20
sa(dp3463
g6
g7
(g11
S'R\xb8\x1e\x85\xeb\tc\xc0'
p3464
tp3465
Rp3466
sg17
g160
sg19
g20
sasg161
g162
sa(dp3467
g2
I1
sg3
(lp3468
(dp3469
g6
g7
(g11
S'\x85\xebQ\xb8\x1e\xc5Q\xc0'
p3470
tp3471
Rp3472
sg17
g18
sg19
g20
sa(dp3473
g6
g7
(g11
S'=\n\xd7\xa3p=&@'
p3474
tp3475
Rp3476
sg17
g25
sg19
g20
sa(dp3477
g6
g7
(g11
S'\xc3\xf5(\\\x8f2Q@'
p3478
tp3479
Rp3480
sg17
g30
sg19
g20
sa(dp3481
g6
g7
(g11
S'hfffff)@'
p3482
tp3483
Rp3484
sg17
g35
sg19
g20
sa(dp3485
g6
g7
(g11
S'\xecQ\xb8\x1e\x85\xabA\xc0'
p3486
tp3487
Rp3488
sg17
g40
sg19
g20
sa(dp3489
g6
g7
(g11
S'\n\xd7\xa3p=\x8a:@'
p3490
tp3491
Rp3492
sg17
g45
sg19
g20
sa(dp3493
g6
g7
(g11
S'\xcd\xcc\xcc\xcc\xcc\\R@'
p3494
tp3495
Rp3496
sg17
g50
sg19
g20
sa(dp3497
g6
g7
(g11
S'\xf6(\\\x8f\xc2ET@'
p3498
tp3499
Rp3500
sg17
g55
sg19
g20
sa(dp3501
g6
g7
(g11
S'\x14\xaeG\xe1z\x14\x1e@'
p3502
tp3503
Rp3504
sg17
g60
sg19
g20
sa(dp3505
g6
g7
(g11
S'\xb8\x1e\x85\xebQ\xb8\xde?'
p3506
tp3507
Rp3508
sg17
g65
sg19
g20
sa(dp3509
g6
g7
(g11
S'=\n\xd7\xa3p]O\xc0'
p3510
tp3511
Rp3512
sg17
g70
sg19
g20
sa(dp3513
g6
g7
(g11
S'\x14\xaeG\xe1z\x14\x18\xc0'
p3514
tp3515
Rp3516
sg17
g75
sg19
g20
sa(dp3517
g6
g7
(g11
S'\xecQ\xb8\x1e\x85k&@'
p3518
tp3519
Rp3520
sg17
g80
sg19
g20
sa(dp3521
g6
g7
(g11
S'\x85\xebQ\xb8\x1e\x95R\xc0'
p3522
tp3523
Rp3524
sg17
g85
sg19
g20
sa(dp3525
g6
g7
(g11
S'\xc3\xf5(\\\x8f\xc2G\xc0'
p3526
tp3527
Rp3528
sg17
g90
sg19
g20
sa(dp3529
g6
g7
(g11
S'fffff\xe6"@'
p3530
tp3531
Rp3532
sg17
g95
sg19
g20
sa(dp3533
g6
g7
(g11
S'\xe1z\x14\xaeG\xa11@'
p3534
tp3535
Rp3536
sg17
g100
sg19
g20
sa(dp3537
g6
g7
(g11
S'R\xb8\x1e\x85\xebQ\x16@'
p3538
tp3539
Rp3540
sg17
g105
sg19
g20
sa(dp3541
g6
g7
(g11
S'\xecQ\xb8\x1e\x85k&@'
p3542
tp3543
Rp3544
sg17
g110
sg19
g20
sa(dp3545
g6
g7
(g11
S'\x85\xebQ\xb8\x1e\x05%@'
p3546
tp3547
Rp3548
sg17
g115
sg19
g20
sa(dp3549
g6
g7
(g11
S'\xe1z\x14\xaeGa;\xc0'
p3550
tp3551
Rp3552
sg17
g120
sg19
g20
sa(dp3553
g6
g7
(g11
S'\xb8\x1e\x85\xebQ\xb8\x17\xc0'
p3554
tp3555
Rp3556
sg17
g125
sg19
g20
sa(dp3557
g6
g7
(g11
S'\n\xd7\xa3p=\n\x17\xc0'
p3558
tp3559
Rp3560
sg17
g130
sg19
g20
sa(dp3561
g6
g7
(g11
S'\xcd\xcc\xcc\xcc\xcc\x0c5\xc0'
p3562
tp3563
Rp3564
sg17
g135
sg19
g20
sa(dp3565
g6
g7
(g11
S'333333\x1a@'
p3566
tp3567
Rp3568
sg17
g140
sg19
g20
sa(dp3569
g6
g7
(g11
S'\xb8\x1e\x85\xebQ\x18G\xc0'
p3570
tp3571
Rp3572
sg17
g145
sg19
g20
sa(dp3573
g6
g7
(g11
S'\xe1z\x14\xaeG\x81F@'
p3574
tp3575
Rp3576
sg17
g150
sg19
g20
sa(dp3577
g6
g7
(g11
S'=\n\xd7\xa3p=)@'
p3578
tp3579
Rp3580
sg17
g155
sg19
g20
sa(dp3581
g6
g7
(g11
S'\\\x8f\xc2\xf5(\x9cc\xc0'
p3582
tp3583
Rp3584
sg17
g160
sg19
g20
sasg161
g162
sa(dp3585
g2
I1
sg3
(lp3586
(dp3587
g6
g7
(g11
S'\xb8\x1e\x85\xebQ\xd8K\xc0'
p3588
tp3589
Rp3590
sg17
g18
sg19
g20
sa(dp3591
g6
g7
(g11
S'\n\xd7\xa3p=\x8a%@'
p3592
tp3593
Rp3594
sg17
g25
sg19
g20
sa(dp3595
g6
g7
(g11
S'fffff\x16Q@'
p3596
tp3597
Rp3598
sg17
g30
sg19
g20
sa(dp3599
g6
g7
(g11
S'hfffff)@'
p3600
tp3601
Rp3602
sg17
g35
sg19
g20
sa(dp3603
g6
g7
(g11
S'q=\n\xd7\xa3\xd0A\xc0'
p3604
tp3605
Rp3606
sg17
g40
sg19
g20
sa(dp3607
g6
g7
(g11
S'\n\xd7\xa3p=\x8a:@'
p3608
tp3609
Rp3610
sg17
g45
sg19
g20
sa(dp3611
g6
g7
(g11
S'\xcd\xcc\xcc\xcc\xcc\\R@'
p3612
tp3613
Rp3614
sg17
g50
sg19
g20
sa(dp3615
g6
g7
(g11
S'\xb8\x1e\x85\xebQXT@'
p3616
tp3617
Rp3618
sg17
g55
sg19
g20
sa(dp3619
g6
g7
(g11
S'\xb8\x1e\x85\xebQ\xb8\x1d@'
p3620
tp3621
Rp3622
sg17
g60
sg19
g20
sa(dp3623
g6
g7
(g11
S'\xaeG\xe1z\x14.%@'
p3624
tp3625
Rp3626
sg17
g65
sg19
g20
sa(dp3627
g6
g7
(g11
S'\x14\xaeG\xe1z\x84P\xc0'
p3628
tp3629
Rp3630
sg17
g70
sg19
g20
sa(dp3631
g6
g7
(g11
S'\x14\xaeG\xe1z\x14\x18\xc0'
p3632
tp3633
Rp3634
sg17
g75
sg19
g20
sa(dp3635
g6
g7
(g11
S'\xecQ\xb8\x1e\x85k&@'
p3636
tp3637
Rp3638
sg17
g80
sg19
g20
sa(dp3639
g6
g7
(g11
S'\x85\xebQ\xb8\x1e\xc5Q\xc0'
p3640
tp3641
Rp3642
sg17
g85
sg19
g20
sa(dp3643
g6
g7
(g11
S'\x1f\x85\xebQ\xb8^>\xc0'
p3644
tp3645
Rp3646
sg17
g90
sg19
g20
sa(dp3647
g6
g7
(g11
S'\x85\xebQ\xb8\x1e\x05"@'
p3648
tp3649
Rp3650
sg17
g95
sg19
g20
sa(dp3651
g6
g7
(g11
S'\x9a\x99\x99\x99\x99\x191@'
p3652
tp3653
Rp3654
sg17
g100
sg19
g20
sa(dp3655
g6
g7
(g11
S'\x14\xaeG\xe1z\x14\x18@'
p3656
tp3657
Rp3658
sg17
g105
sg19
g20
sa(dp3659
g6
g7
(g11
S'\xecQ\xb8\x1e\x85\xeb/@'
p3660
tp3661
Rp3662
sg17
g110
sg19
g20
sa(dp3663
g6
g7
(g11
S'\x1f\x85\xebQ\xb8\x9e<@'
p3664
tp3665
Rp3666
sg17
g115
sg19
g20
sa(dp3667
g6
g7
(g11
S'\x9a\x99\x99\x99\x99\x99\x07\xc0'
p3668
tp3669
Rp3670
sg17
g120
sg19
g20
sa(dp3671
g6
g7
(g11
S'\xb8\x1e\x85\xebQ\xb8\x17\xc0'
p3672
tp3673
Rp3674
sg17
g125
sg19
g20
sa(dp3675
g6
g7
(g11
S'\xaeG\xe1z\x14.<\xc0'
p3676
tp3677
Rp3678
sg17
g130
sg19
g20
sa(dp3679
g6
g7
(g11
S'\x1f\x85\xebQ\xb8^6\xc0'
p3680
tp3681
Rp3682
sg17
g135
sg19
g20
sa(dp3683
g6
g7
(g11
S'\x14\xaeG\xe1z\x14\x18@'
p3684
tp3685
Rp3686
sg17
g140
sg19
g20
sa(dp3687
g6
g7
(g11
S'\xb8\x1e\x85\xebQ\x18G\xc0'
p3688
tp3689
Rp3690
sg17
g145
sg19
g20
sa(dp3691
g6
g7
(g11
S'\xe1z\x14\xaeG\x81F@'
p3692
tp3693
Rp3694
sg17
g150
sg19
g20
sa(dp3695
g6
g7
(g11
S'=\n\xd7\xa3p=\x08\xc0'
p3696
tp3697
Rp3698
sg17
g155
sg19
g20
sa(dp3699
g6
g7
(g11
S'\xcd\xcc\xcc\xcc\xcc\x0cd\xc0'
p3700
tp3701
Rp3702
sg17
g160
sg19
g20
sasg161
g162
sa(dp3703
g2
I1
sg3
(lp3704
(dp3705
g6
g7
(g11
S'\xa4p=\n\xd7\x13P\xc0'
p3706
tp3707
Rp3708
sg17
g18
sg19
g20
sa(dp3709
g6
g7
(g11
S'fffff\xe6%@'
p3710
tp3711
Rp3712
sg17
g25
sg19
g20
sa(dp3713
g6
g7
(g11
S'\x00\x00\x00\x00\x00\x00Q@'
p3714
tp3715
Rp3716
sg17
g30
sg19
g20
sa(dp3717
g6
g7
(g11
S'<\n\xd7\xa3p\xbd+@'
p3718
tp3719
Rp3720
sg17
g35
sg19
g20
sa(dp3721
g6
g7
(g11
S'\\\x8f\xc2\xf5(\x1cB\xc0'
p3722
tp3723
Rp3724
sg17
g40
sg19
g20
sa(dp3725
g6
g7
(g11
S'\x00\x00\x00\x00\x00@:@'
p3726
tp3727
Rp3728
sg17
g45
sg19
g20
sa(dp3729
g6
g7
(g11
S'\xaeG\xe1z\x14\xdeR@'
p3730
tp3731
Rp3732
sg17
g50
sg19
g20
sa(dp3733
g6
g7
(g11
S'\xf6(\\\x8f\xc2ET@'
p3734
tp3735
Rp3736
sg17
g55
sg19
g20
sa(dp3737
g6
g7
(g11
S'\\\x8f\xc2\xf5(\\\x1d@'
p3738
tp3739
Rp3740
sg17
g60
sg19
g20
sa(dp3741
g6
g7
(g11
S'\x14\xaeG\xe1z\x14\x04@'
p3742
tp3743
Rp3744
sg17
g65
sg19
g20
sa(dp3745
g6
g7
(g11
S'\\\x8f\xc2\xf5(LT\xc0'
p3746
tp3747
Rp3748
sg17
g70
sg19
g20
sa(dp3749
g6
g7
(g11
S'q=\n\xd7\xa3p\x18\xc0'
p3750
tp3751
Rp3752
sg17
g75
sg19
g20
sa(dp3753
g6
g7
(g11
S'\xecQ\xb8\x1e\x85k&@'
p3754
tp3755
Rp3756
sg17
g80
sg19
g20
sa(dp3757
g6
g7
(g11
S'H\xe1z\x14\xae\x97S\xc0'
p3758
tp3759
Rp3760
sg17
g85
sg19
g20
sa(dp3761
g6
g7
(g11
S'q=\n\xd7\xa3\xf0&@'
p3762
tp3763
Rp3764
sg17
g90
sg19
g20
sa(dp3765
g6
g7
(g11
S'\xd7\xa3p=\n\xd7!@'
p3766
tp3767
Rp3768
sg17
g95
sg19
g20
sa(dp3769
g6
g7
(g11
S'\x00\x00\x00\x00\x00\xc00@'
p3770
tp3771
Rp3772
sg17
g100
sg19
g20
sa(dp3773
g6
g7
(g11
S'\xcd\xcc\xcc\xcc\xcc\xcc\x18@'
p3774
tp3775
Rp3776
sg17
g105
sg19
g20
sa(dp3777
g6
g7
(g11
S'\xecQ\xb8\x1e\x85\xeb,@'
p3778
tp3779
Rp3780
sg17
g110
sg19
g20
sa(dp3781
g6
g7
(g11
S'\x14\xaeG\xe1zTH@'
p3782
tp3783
Rp3784
sg17
g115
sg19
g20
sa(dp3785
g6
g7
(g11
S'\x1f\x85\xebQ\xb8\xdeA@'
p3786
tp3787
Rp3788
sg17
g120
sg19
g20
sa(dp3789
g6
g7
(g11
S'\x14\xaeG\xe1z\x14\x18\xc0'
p3790
tp3791
Rp3792
sg17
g125
sg19
g20
sa(dp3793
g6
g7
(g11
S'\xecQ\xb8\x1e\x85k:\xc0'
p3794
tp3795
Rp3796
sg17
g130
sg19
g20
sa(dp3797
g6
g7
(g11
S'\x85\xebQ\xb8\x1e\x857\xc0'
p3798
tp3799
Rp3800
sg17
g135
sg19
g20
sa(dp3801
g6
g7
(g11
S'R\xb8\x1e\x85\xebQ\x16@'
p3802
tp3803
Rp3804
sg17
g140
sg19
g20
sa(dp3805
g6
g7
(g11
S'R\xb8\x1e\x85\xeb\xf1F\xc0'
p3806
tp3807
Rp3808
sg17
g145
sg19
g20
sa(dp3809
g6
g7
(g11
S'q=\n\xd7\xa3\xb0M@'
p3810
tp3811
Rp3812
sg17
g150
sg19
g20
sa(dp3813
g6
g7
(g11
S'=\n\xd7\xa3p=\x08\xc0'
p3814
tp3815
Rp3816
sg17
g155
sg19
g20
sa(dp3817
g6
g7
(g11
S'\\\x8f\xc2\xf5(\x9cd\xc0'
p3818
tp3819
Rp3820
sg17
g160
sg19
g20
sasg161
g162
sa(dp3821
g2
I1
sg3
(lp3822
(dp3823
g6
g7
(g11
S'\x14\xaeG\xe1z$P\xc0'
p3824
tp3825
Rp3826
sg17
g18
sg19
g20
sa(dp3827
g6
g7
(g11
S'\x00\x00\x00\x00\x00\x00(@'
p3828
tp3829
Rp3830
sg17
g25
sg19
g20
sa(dp3831
g6
g7
(g11
S'\n\xd7\xa3p=\xcaS@'
p3832
tp3833
Rp3834
sg17
g30
sg19
g20
sa(dp3835
g6
g7
(g11
S'<\n\xd7\xa3p\xbd+@'
p3836
tp3837
Rp3838
sg17
g35
sg19
g20
sa(dp3839
g6
g7
(g11
S'\xd7\xa3p=\n\xd7B\xc0'
p3840
tp3841
Rp3842
sg17
g40
sg19
g20
sa(dp3843
g6
g7
(g11
S'\x00\x00\x00\x00\x00@:@'
p3844
tp3845
Rp3846
sg17
g45
sg19
g20
sa(dp3847
g6
g7
(g11
S'=\n\xd7\xa3p\xcdR@'
p3848
tp3849
Rp3850
sg17
g50
sg19
g20
sa(dp3851
g6
g7
(g11
S'q=\n\xd7\xa3\x90T@'
p3852
tp3853
Rp3854
sg17
g55
sg19
g20
sa(dp3855
g6
g7
(g11
S'\x00\x00\x00\x00\x00\x00\x1d@'
p3856
tp3857
Rp3858
sg17
g60
sg19
g20
sa(dp3859
g6
g7
(g11
S'\n\xd7\xa3p=\n\xf3?'
p3860
tp3861
Rp3862
sg17
g65
sg19
g20
sa(dp3863
g6
g7
(g11
S'q=\n\xd7\xa3@T\xc0'
p3864
tp3865
Rp3866
sg17
g70
sg19
g20
sa(dp3867
g6
g7
(g11
S'\xcd\xcc\xcc\xcc\xccL$\xc0'
p3868
tp3869
Rp3870
sg17
g75
sg19
g20
sa(dp3871
g6
g7
(g11
S'\x14\xaeG\xe1z\x14#@'
p3872
tp3873
Rp3874
sg17
g80
sg19
g20
sa(dp3875
g6
g7
(g11
S'H\xe1z\x14\xae\x97S\xc0'
p3876
tp3877
Rp3878
sg17
g85
sg19
g20
sa(dp3879
g6
g7
(g11
S'fffff\xe6%@'
p3880
tp3881
Rp3882
sg17
g90
sg19
g20
sa(dp3883
g6
g7
(g11
S'\xf6(\\\x8f\xc2u*@'
p3884
tp3885
Rp3886
sg17
g95
sg19
g20
sa(dp3887
g6
g7
(g11
S')\\\x8f\xc2\xf5(\x19@'
p3888
tp3889
Rp3890
sg17
g100
sg19
g20
sa(dp3891
g6
g7
(g11
S'q=\n\xd7\xa3\xf0&@'
p3892
tp3893
Rp3894
sg17
g105
sg19
g20
sa(dp3895
g6
g7
(g11
S'\x1f\x85\xebQ\xb8\x9e-@'
p3896
tp3897
Rp3898
sg17
g110
sg19
g20
sa(dp3899
g6
g7
(g11
S'\x14\xaeG\xe1zTH@'
p3900
tp3901
Rp3902
sg17
g115
sg19
g20
sa(dp3903
g6
g7
(g11
S'\x8f\xc2\xf5(\\OB@'
p3904
tp3905
Rp3906
sg17
g120
sg19
g20
sa(dp3907
g6
g7
(g11
S'\xb8\x1e\x85\xebQ\xb8\x17\xc0'
p3908
tp3909
Rp3910
sg17
g125
sg19
g20
sa(dp3911
g6
g7
(g11
S')\\\x8f\xc2\xf5\xe83\xc0'
p3912
tp3913
Rp3914
sg17
g130
sg19
g20
sa(dp3915
g6
g7
(g11
S'\xc3\xf5(\\\x8f\xc25\xc0'
p3916
tp3917
Rp3918
sg17
g135
sg19
g20
sa(dp3919
g6
g7
(g11
S'R\xb8\x1e\x85\xebQ=@'
p3920
tp3921
Rp3922
sg17
g140
sg19
g20
sa(dp3923
g6
g7
(g11
S'\xcd\xcc\xcc\xcc\xcc\xccF\xc0'
p3924
tp3925
Rp3926
sg17
g145
sg19
g20
sa(dp3927
g6
g7
(g11
S'=\n\xd7\xa3p=G@'
p3928
tp3929
Rp3930
sg17
g150
sg19
g20
sa(dp3931
g6
g7
(g11
S'\x14\xaeG\xe1z\x14\xfa\xbf'
p3932
tp3933
Rp3934
sg17
g155
sg19
g20
sa(dp3935
g6
g7
(g11
S')\\\x8f\xc2\xf5\x90d\xc0'
p3936
tp3937
Rp3938
sg17
g160
sg19
g20
sasg161
g162
sa(dp3939
g2
I1
sg3
(lp3940
(dp3941
g6
g7
(g11
S'{\x14\xaeG\xe1:P\xc0'
p3942
tp3943
Rp3944
sg17
g18
sg19
g20
sa(dp3945
g6
g7
(g11
S"\x1f\x85\xebQ\xb8\x1e'@"
p3946
tp3947
Rp3948
sg17
g25
sg19
g20
sa(dp3949
g6
g7
(g11
S'\n\xd7\xa3p=\xcaS@'
p3950
tp3951
Rp3952
sg17
g30
sg19
g20
sa(dp3953
g6
g7
(g11
S'<\n\xd7\xa3p\xbd+@'
p3954
tp3955
Rp3956
sg17
g35
sg19
g20
sa(dp3957
g6
g7
(g11
S'=\n\xd7\xa3p\xfdB\xc0'
p3958
tp3959
Rp3960
sg17
g40
sg19
g20
sa(dp3961
g6
g7
(g11
S'\x00\x00\x00\x00\x00@:@'
p3962
tp3963
Rp3964
sg17
g45
sg19
g20
sa(dp3965
g6
g7
(g11
S'=\n\xd7\xa3p\xcdR@'
p3966
tp3967
Rp3968
sg17
g50
sg19
g20
sa(dp3969
g6
g7
(g11
S'33333\xa3T@'
p3970
tp3971
Rp3972
sg17
g55
sg19
g20
sa(dp3973
g6
g7
(g11
S'\xc3\xf5(\\\x8f\xc2\x11@'
p3974
tp3975
Rp3976
sg17
g60
sg19
g20
sa(dp3977
g6
g7
(g11
S'\n\xd7\xa3p=\n\xf3?'
p3978
tp3979
Rp3980
sg17
g65
sg19
g20
sa(dp3981
g6
g7
(g11
S'q=\n\xd7\xa3@T\xc0'
p3982
tp3983
Rp3984
sg17
g70
sg19
g20
sa(dp3985
g6
g7
(g11
S'\x9a\x99\x99\x99\x99\x99#\xc0'
p3986
tp3987
Rp3988
sg17
g75
sg19
g20
sa(dp3989
g6
g7
(g11
S'q=\n\xd7\xa3\xf0)@'
p3990
tp3991
Rp3992
sg17
g80
sg19
g20
sa(dp3993
g6
g7
(g11
S'H\xe1z\x14\xae\x97S\xc0'
p3994
tp3995
Rp3996
sg17
g85
sg19
g20
sa(dp3997
g6
g7
(g11
S'\xc3\xf5(\\\x8f\xc2&@'
p3998
tp3999
Rp4000
sg17
g90
sg19
g20
sa(dp4001
g6
g7
(g11
S'ffffff,@'
p4002
tp4003
Rp4004
sg17
g95
sg19
g20
sa(dp4005
g6
g7
(g11
S'H\xe1z\x14\xaegC\xc0'
p4006
tp4007
Rp4008
sg17
g100
sg19
g20
sa(dp4009
g6
g7
(g11
S'=\n\xd7\xa3p\xbd,@'
p4010
tp4011
Rp4012
sg17
g105
sg19
g20
sa(dp4013
g6
g7
(g11
S'\x00\x00\x00\x00\x00\x80.@'
p4014
tp4015
Rp4016
sg17
g110
sg19
g20
sa(dp4017
g6
g7
(g11
S'\xecQ\xb8\x1e\x85kH@'
p4018
tp4019
Rp4020
sg17
g115
sg19
g20
sa(dp4021
g6
g7
(g11
S'fffff\x86B@'
p4022
tp4023
Rp4024
sg17
g120
sg19
g20
sa(dp4025
g6
g7
(g11
S'\xb8\x1e\x85\xebQ\xb8\x17\xc0'
p4026
tp4027
Rp4028
sg17
g125
sg19
g20
sa(dp4029
g6
g7
(g11
S'\xaeG\xe1z\x14.4\xc0'
p4030
tp4031
Rp4032
sg17
g130
sg19
g20
sa(dp4033
g6
g7
(g11
S'q=\n\xd7\xa3p4\xc0'
p4034
tp4035
Rp4036
sg17
g135
sg19
g20
sa(dp4037
g6
g7
(g11
S'R\xb8\x1e\x85\xeb\xf1U@'
p4038
tp4039
Rp4040
sg17
g140
sg19
g20
sa(dp4041
g6
g7
(g11
S'\\\x8f\xc2\xf5(\\F\xc0'
p4042
tp4043
Rp4044
sg17
g145
sg19
g20
sa(dp4045
g6
g7
(g11
S'\xb8\x1e\x85\xebQ\x18G@'
p4046
tp4047
Rp4048
sg17
g150
sg19
g20
sa(dp4049
g6
g7
(g11
S'\x14\xaeG\xe1z\x14\xfa\xbf'
p4050
tp4051
Rp4052
sg17
g155
sg19
g20
sa(dp4053
g6
g7
(g11
S')\\\x8f\xc2\xf5\x90d\xc0'
p4054
tp4055
Rp4056
sg17
g160
sg19
g20
sasg161
g162
sa(dp4057
g2
I1
sg3
(lp4058
(dp4059
g6
g7
(g11
S'fffffFP\xc0'
p4060
tp4061
Rp4062
sg17
g18
sg19
g20
sa(dp4063
g6
g7
(g11
S'\x85\xebQ\xb8\x1e\x05%@'
p4064
tp4065
Rp4066
sg17
g25
sg19
g20
sa(dp4067
g6
g7
(g11
S'\n\xd7\xa3p=*T@'
p4068
tp4069
Rp4070
sg17
g30
sg19
g20
sa(dp4071
g6
g7
(g11
S'<\n\xd7\xa3p\xbd+@'
p4072
tp4073
Rp4074
sg17
g35
sg19
g20
sa(dp4075
g6
g7
(g11
S'\xc3\xf5(\\\x8f"C\xc0'
p4076
tp4077
Rp4078
sg17
g40
sg19
g20
sa(dp4079
g6
g7
(g11
S'\x00\x00\x00\x00\x00@:@'
p4080
tp4081
Rp4082
sg17
g45
sg19
g20
sa(dp4083
g6
g7
(g11
S'=\n\xd7\xa3p\xcdR@'
p4084
tp4085
Rp4086
sg17
g50
sg19
g20
sa(dp4087
g6
g7
(g11
S'33333\xa3T@'
p4088
tp4089
Rp4090
sg17
g55
sg19
g20
sa(dp4091
g6
g7
(g11
S'\\\x8f\xc2\xf5(\\\x03@'
p4092
tp4093
Rp4094
sg17
g60
sg19
g20
sa(dp4095
g6
g7
(g11
S'\n\xd7\xa3p=\n\xf3?'
p4096
tp4097
Rp4098
sg17
g65
sg19
g20
sa(dp4099
g6
g7
(g11
S'q=\n\xd7\xa3@T\xc0'
p4100
tp4101
Rp4102
sg17
g70
sg19
g20
sa(dp4103
g6
g7
(g11
S'\x00\x00\x00\x00\x00\x80!\xc0'
p4104
tp4105
Rp4106
sg17
g75
sg19
g20
sa(dp4107
g6
g7
(g11
S'\xb8\x1e\x85\xebQ8,@'
p4108
tp4109
Rp4110
sg17
g80
sg19
g20
sa(dp4111
g6
g7
(g11
S'H\xe1z\x14\xae\x97S\xc0'
p4112
tp4113
Rp4114
sg17
g85
sg19
g20
sa(dp4115
g6
g7
(g11
S"{\x14\xaeG\xe1z'@"
p4116
tp4117
Rp4118
sg17
g90
sg19
g20
sa(dp4119
g6
g7
(g11
S'\x14\xaeG\xe1z\x94)@'
p4120
tp4121
Rp4122
sg17
g95
sg19
g20
sa(dp4123
g6
g7
(g11
S'\\\x8f\xc2\xf5(LP\xc0'
p4124
tp4125
Rp4126
sg17
g100
sg19
g20
sa(dp4127
g6
g7
(g11
S'R\xb8\x1e\x85\xeb\x910@'
p4128
tp4129
Rp4130
sg17
g105
sg19
g20
sa(dp4131
g6
g7
(g11
S'\xe1z\x14\xaeGa/@'
p4132
tp4133
Rp4134
sg17
g110
sg19
g20
sa(dp4135
g6
g7
(g11
S'\xe1z\x14\xaeG\x81H@'
p4136
tp4137
Rp4138
sg17
g115
sg19
g20
sa(dp4139
g6
g7
(g11
S'\x14\xaeG\xe1z\xb4B@'
p4140
tp4141
Rp4142
sg17
g120
sg19
g20
sa(dp4143
g6
g7
(g11
S'\x00\x00\x00\x00\x00\xc08@'
p4144
tp4145
Rp4146
sg17
g125
sg19
g20
sa(dp4147
g6
g7
(g11
S'\xaeG\xe1z\x14.4\xc0'
p4148
tp4149
Rp4150
sg17
g130
sg19
g20
sa(dp4151
g6
g7
(g11
S'\xcd\xcc\xcc\xcc\xccL3\xc0'
p4152
tp4153
Rp4154
sg17
g135
sg19
g20
sa(dp4155
g6
g7
(g11
S'\xecQ\xb8\x1e\x85{[@'
p4156
tp4157
Rp4158
sg17
g140
sg19
g20
sa(dp4159
g6
g7
(g11
S'H\xe1z\x14\xae\xa7F\xc0'
p4160
tp4161
Rp4162
sg17
g145
sg19
g20
sa(dp4163
g6
g7
(g11
S'=\n\xd7\xa3p=G@'
p4164
tp4165
Rp4166
sg17
g150
sg19
g20
sa(dp4167
g6
g7
(g11
S'\x14\xaeG\xe1z\x14\xfa\xbf'
p4168
tp4169
Rp4170
sg17
g155
sg19
g20
sa(dp4171
g6
g7
(g11
S')\\\x8f\xc2\xf5\x90d\xc0'
p4172
tp4173
Rp4174
sg17
g160
sg19
g20
sasg161
g162
sa(dp4175
g2
I1
sg3
(lp4176
(dp4177
g6
g7
(g11
S'\xd7\xa3p=\nWP\xc0'
p4178
tp4179
Rp4180
sg17
g18
sg19
g20
sa(dp4181
g6
g7
(g11
S')\\\x8f\xc2\xf5\xa8$@'
p4182
tp4183
Rp4184
sg17
g25
sg19
g20
sa(dp4185
g6
g7
(g11
S'\x9a\x99\x99\x99\x99\x19T@'
p4186
tp4187
Rp4188
sg17
g30
sg19
g20
sa(dp4189
g6
g7
(g11
S'<\n\xd7\xa3p\xbd+@'
p4190
tp4191
Rp4192
sg17
g35
sg19
g20
sa(dp4193
g6
g7
(g11
S'\xaeG\xe1z\x14nC\xc0'
p4194
tp4195
Rp4196
sg17
g40
sg19
g20
sa(dp4197
g6
g7
(g11
S'\x00\x00\x00\x00\x00@:@'
p4198
tp4199
Rp4200
sg17
g45
sg19
g20
sa(dp4201
g6
g7
(g11
S'\xc3\xf5(\\\x8f\x92U@'
p4202
tp4203
Rp4204
sg17
g50
sg19
g20
sa(dp4205
g6
g7
(g11
S'q=\n\xd7\xa3\x90T@'
p4206
tp4207
Rp4208
sg17
g55
sg19
g20
sa(dp4209
g6
g7
(g11
S'\xe1z\x14\xaeG\xe1\xea?'
p4210
tp4211
Rp4212
sg17
g60
sg19
g20
sa(dp4213
g6
g7
(g11
S'\x14\xaeG\xe1z\x14\x18@'
p4214
tp4215
Rp4216
sg17
g65
sg19
g20
sa(dp4217
g6
g7
(g11
S'\x00\x00\x00\x00\x00\x00S\xc0'
p4218
tp4219
Rp4220
sg17
g70
sg19
g20
sa(dp4221
g6
g7
(g11
S'R\xb8\x1e\x85\xebQ!\xc0'
p4222
tp4223
Rp4224
sg17
g75
sg19
g20
sa(dp4225
g6
g7
(g11
S'\x00\x00\x00\x00\x00\x00(@'
p4226
tp4227
Rp4228
sg17
g80
sg19
g20
sa(dp4229
g6
g7
(g11
S'\n\xd7\xa3p=\xfaX\xc0'
p4230
tp4231
Rp4232
sg17
g85
sg19
g20
sa(dp4233
g6
g7
(g11
S'\xaeG\xe1z\x14.(@'
p4234
tp4235
Rp4236
sg17
g90
sg19
g20
sa(dp4237
g6
g7
(g11
S'=\n\xd7\xa3p=&@'
p4238
tp4239
Rp4240
sg17
g95
sg19
g20
sa(dp4241
g6
g7
(g11
S'\xcd\xcc\xcc\xcc\xcc\\P\xc0'
p4242
tp4243
Rp4244
sg17
g100
sg19
g20
sa(dp4245
g6
g7
(g11
S'q=\n\xd7\xa301@'
p4246
tp4247
Rp4248
sg17
g105
sg19
g20
sa(dp4249
g6
g7
(g11
S'\\\x8f\xc2\xf5(\xdc.@'
p4250
tp4251
Rp4252
sg17
g110
sg19
g20
sa(dp4253
g6
g7
(g11
S'\xf6(\\\x8f\xc2uH@'
p4254
tp4255
Rp4256
sg17
g115
sg19
g20
sa(dp4257
g6
g7
(g11
S'\n\xd7\xa3p=\xcaB@'
p4258
tp4259
Rp4260
sg17
g120
sg19
g20
sa(dp4261
g6
g7
(g11
S'\x00\x00\x00\x00\x00\xc08@'
p4262
tp4263
Rp4264
sg17
g125
sg19
g20
sa(dp4265
g6
g7
(g11
S'\xaeG\xe1z\x14.4\xc0'
p4266
tp4267
Rp4268
sg17
g130
sg19
g20
sa(dp4269
g6
g7
(g11
S'\xc3\xf5(\\\x8f\x822\xc0'
p4270
tp4271
Rp4272
sg17
g135
sg19
g20
sa(dp4273
g6
g7
(g11
S'\x9a\x99\x99\x99\x99\xe9X@'
p4274
tp4275
Rp4276
sg17
g140
sg19
g20
sa(dp4277
g6
g7
(g11
S'q=\n\xd7\xa3\x10F\xc0'
p4278
tp4279
Rp4280
sg17
g145
sg19
g20
sa(dp4281
g6
g7
(g11
S'fffff\xe6P@'
p4282
tp4283
Rp4284
sg17
g150
sg19
g20
sa(dp4285
g6
g7
(g11
S'\xa4p=\n\xd7\xa3\xf8\xbf'
p4286
tp4287
Rp4288
sg17
g155
sg19
g20
sa(dp4289
g6
g7
(g11
S')\\\x8f\xc2\xf5\x90d\xc0'
p4290
tp4291
Rp4292
sg17
g160
sg19
g20
sasg161
g162
sa(dp4293
g2
I1
sg3
(lp4294
(dp4295
g6
g7
(g11
S'\x85\xebQ\xb8\x1e\xc5L\xc0'
p4296
tp4297
Rp4298
sg17
g18
sg19
g20
sa(dp4299
g6
g7
(g11
S'H\xe1z\x14\xae\xc7#@'
p4300
tp4301
Rp4302
sg17
g25
sg19
g20
sa(dp4303
g6
g7
(g11
S'{\x14\xaeG\xe1:T@'
p4304
tp4305
Rp4306
sg17
g30
sg19
g20
sa(dp4307
g6
g7
(g11
S'\xecQ\xb8\x1e\x85\xeb,@'
p4308
tp4309
Rp4310
sg17
g35
sg19
g20
sa(dp4311
g6
g7
(g11
S')\\\x8f\xc2\xf5(D\xc0'
p4312
tp4313
Rp4314
sg17
g40
sg19
g20
sa(dp4315
g6
g7
(g11
S'\x14\xaeG\xe1z\xd4:@'
p4316
tp4317
Rp4318
sg17
g45
sg19
g20
sa(dp4319
g6
g7
(g11
S'\x9a\x99\x99\x99\x99\x19T@'
p4320
tp4321
Rp4322
sg17
g50
sg19
g20
sa(dp4323
g6
g7
(g11
S'{\x14\xaeG\xe1jT@'
p4324
tp4325
Rp4326
sg17
g55
sg19
g20
sa(dp4327
g6
g7
(g11
S')\\\x8f\xc2\xf5(\xcc?'
p4328
tp4329
Rp4330
sg17
g60
sg19
g20
sa(dp4331
g6
g7
(g11
S'{\x14\xaeG\xe1z\x12@'
p4332
tp4333
Rp4334
sg17
g65
sg19
g20
sa(dp4335
g6
g7
(g11
S'\\\x8f\xc2\xf5(LX\xc0'
p4336
tp4337
Rp4338
sg17
g70
sg19
g20
sa(dp4339
g6
g7
(g11
S'\xb8\x1e\x85\xebQ\xb8\x1d\xc0'
p4340
tp4341
Rp4342
sg17
g75
sg19
g20
sa(dp4343
g6
g7
(g11
S'{\x14\xaeG\xe1z$@'
p4344
tp4345
Rp4346
sg17
g80
sg19
g20
sa(dp4347
g6
g7
(g11
S'\xf6(\\\x8f\xc2\xd5N\xc0'
p4348
tp4349
Rp4350
sg17
g85
sg19
g20
sa(dp4351
g6
g7
(g11
S'R\xb8\x1e\x85\xebQ\xf4?'
p4352
tp4353
Rp4354
sg17
g90
sg19
g20
sa(dp4355
g6
g7
(g11
S'\x85\xebQ\xb8\x1e\x05"@'
p4356
tp4357
Rp4358
sg17
g95
sg19
g20
sa(dp4359
g6
g7
(g11
S'=\n\xd7\xa3pmP\xc0'
p4360
tp4361
Rp4362
sg17
g100
sg19
g20
sa(dp4363
g6
g7
(g11
S'\n\xd7\xa3p=\x8a1@'
p4364
tp4365
Rp4366
sg17
g105
sg19
g20
sa(dp4367
g6
g7
(g11
S'33333sK@'
p4368
tp4369
Rp4370
sg17
g110
sg19
g20
sa(dp4371
g6
g7
(g11
S'\\\x8f\xc2\xf5(\xbcI@'
p4372
tp4373
Rp4374
sg17
g115
sg19
g20
sa(dp4375
g6
g7
(g11
S'\xd7\xa3p=\nWI@'
p4376
tp4377
Rp4378
sg17
g120
sg19
g20
sa(dp4379
g6
g7
(g11
S'\x00\x00\x00\x00\x00\xc08@'
p4380
tp4381
Rp4382
sg17
g125
sg19
g20
sa(dp4383
g6
g7
(g11
S'\x14\xaeG\xe1z\xf4A@'
p4384
tp4385
Rp4386
sg17
g130
sg19
g20
sa(dp4387
g6
g7
(g11
S'\xd7\xa3p=\n\x17F\xc0'
p4388
tp4389
Rp4390
sg17
g135
sg19
g20
sa(dp4391
g6
g7
(g11
S'\x9a\x99\x99\x99\x99\xe9X@'
p4392
tp4393
Rp4394
sg17
g140
sg19
g20
sa(dp4395
g6
g7
(g11
S'\xa4p=\n\xd7\xa3K@'
p4396
tp4397
Rp4398
sg17
g145
sg19
g20
sa(dp4399
g6
g7
(g11
S'\xb8\x1e\x85\xebQ\x88P@'
p4400
tp4401
Rp4402
sg17
g150
sg19
g20
sa(dp4403
g6
g7
(g11
S'\xecQ\xb8\x1e\x85k&@'
p4404
tp4405
Rp4406
sg17
g155
sg19
g20
sa(dp4407
g6
g7
(g11
S'\xcd\xcc\xcc\xcc\xcc\x0c`\xc0'
p4408
tp4409
Rp4410
sg17
g160
sg19
g20
sasg161
g162
sa(dp4411
g2
I1
sg3
(lp4412
(dp4413
g6
g7
(g11
S'\x9a\x99\x99\x99\x99\xb9Q\xc0'
p4414
tp4415
Rp4416
sg17
g18
sg19
g20
sa(dp4417
g6
g7
(g11
S')\\\x8f\xc2\xf5\xa8$@'
p4418
tp4419
Rp4420
sg17
g25
sg19
g20
sa(dp4421
g6
g7
(g11
S'=\n\xd7\xa3pmT@'
p4422
tp4423
Rp4424
sg17
g30
sg19
g20
sa(dp4425
g6
g7
(g11
S'\x00\x00\x00\x00\x00\x80-@'
p4426
tp4427
Rp4428
sg17
g35
sg19
g20
sa(dp4429
g6
g7
(g11
S'\x8f\xc2\xf5(\\OD\xc0'
p4430
tp4431
Rp4432
sg17
g40
sg19
g20
sa(dp4433
g6
g7
(g11
S'\x14\xaeG\xe1z\xd4:@'
p4434
tp4435
Rp4436
sg17
g45
sg19
g20
sa(dp4437
g6
g7
(g11
S'q=\n\xd7\xa3\x10S@'
p4438
tp4439
Rp4440
sg17
g50
sg19
g20
sa(dp4441
g6
g7
(g11
S'{\x14\xaeG\xe1jT@'
p4442
tp4443
Rp4444
sg17
g55
sg19
g20
sa(dp4445
g6
g7
(g11
S'\xa4p=\n\xd7\xa3\xc0\xbf'
p4446
tp4447
Rp4448
sg17
g60
sg19
g20
sa(dp4449
g6
g7
(g11
S'\xaeG\xe1z\x14\x0eC\xc0'
p4450
tp4451
Rp4452
sg17
g65
sg19
g20
sa(dp4453
g6
g7
(g11
S'\xecQ\xb8\x1e\x85{Q\xc0'
p4454
tp4455
Rp4456
sg17
g70
sg19
g20
sa(dp4457
g6
g7
(g11
S'\xecQ\xb8\x1e\x85\xeb\x1a\xc0'
p4458
tp4459
Rp4460
sg17
g75
sg19
g20
sa(dp4461
g6
g7
(g11
S'\x85\xebQ\xb8\x1e\x05%@'
p4462
tp4463
Rp4464
sg17
g80
sg19
g20
sa(dp4465
g6
g7
(g11
S'\x85\xebQ\xb8\x1e\x95R\xc0'
p4466
tp4467
Rp4468
sg17
g85
sg19
g20
sa(dp4469
g6
g7
(g11
S'q=\n\xd7\xa3p \xc0'
p4470
tp4471
Rp4472
sg17
g90
sg19
g20
sa(dp4473
g6
g7
(g11
S'\xf6(\\\x8f\xc2\xf5 @'
p4474
tp4475
Rp4476
sg17
g95
sg19
g20
sa(dp4477
g6
g7
(g11
S'\x1f\x85\xebQ\xb8~P\xc0'
p4478
tp4479
Rp4480
sg17
g100
sg19
g20
sa(dp4481
g6
g7
(g11
S'\x9a\x99\x99\x99\x99\x191@'
p4482
tp4483
Rp4484
sg17
g105
sg19
g20
sa(dp4485
g6
g7
(g11
S'\xf6(\\\x8f\xc25M@'
p4486
tp4487
Rp4488
sg17
g110
sg19
g20
sa(dp4489
g6
g7
(g11
S'q=\n\xd7\xa3\xb0I@'
p4490
tp4491
Rp4492
sg17
g115
sg19
g20
sa(dp4493
g6
g7
(g11
S'\x14\xaeG\xe1zTQ@'
p4494
tp4495
Rp4496
sg17
g120
sg19
g20
sa(dp4497
g6
g7
(g11
S'\x00\x00\x00\x00\x00\xc08@'
p4498
tp4499
Rp4500
sg17
g125
sg19
g20
sa(dp4501
g6
g7
(g11
S'\xc3\xf5(\\\x8f\xa2H@'
p4502
tp4503
Rp4504
sg17
g130
sg19
g20
sa(dp4505
g6
g7
(g11
S'\xcd\xcc\xcc\xcc\xcc\x8c6\xc0'
p4506
tp4507
Rp4508
sg17
g135
sg19
g20
sa(dp4509
g6
g7
(g11
S'\n\xd7\xa3p=\xfaX@'
p4510
tp4511
Rp4512
sg17
g140
sg19
g20
sa(dp4513
g6
g7
(g11
S'\xa4p=\n\xd7\xa3K@'
p4514
tp4515
Rp4516
sg17
g145
sg19
g20
sa(dp4517
g6
g7
(g11
S')\\\x8f\xc2\xf5\xf8P@'
p4518
tp4519
Rp4520
sg17
g150
sg19
g20
sa(dp4521
g6
g7
(g11
S'\xb8\x1e\x85\xebQ\xb8"@'
p4522
tp4523
Rp4524
sg17
g155
sg19
g20
sa(dp4525
g6
g7
(g11
S'\x85\xebQ\xb8\x1eeY\xc0'
p4526
tp4527
Rp4528
sg17
g160
sg19
g20
sasg161
g162
sa(dp4529
g2
I1
sg3
(lp4530
(dp4531
g6
g7
(g11
S'\xf6(\\\x8f\xc2\xa5R\xc0'
p4532
tp4533
Rp4534
sg17
g18
sg19
g20
sa(dp4535
g6
g7
(g11
S'\n\xd7\xa3p=\x8a%@'
p4536
tp4537
Rp4538
sg17
g25
sg19
g20
sa(dp4539
g6
g7
(g11
S'\x8f\xc2\xf5(\\\xefT@'
p4540
tp4541
Rp4542
sg17
g30
sg19
g20
sa(dp4543
g6
g7
(g11
S'\xb8\x1e\x85\xebQ80@'
p4544
tp4545
Rp4546
sg17
g35
sg19
g20
sa(dp4547
g6
g7
(g11
S'\x85\xebQ\xb8\x1e\xe5D\xc0'
p4548
tp4549
Rp4550
sg17
g40
sg19
g20
sa(dp4551
g6
g7
(g11
S'\x14\xaeG\xe1z\xd4:@'
p4552
tp4553
Rp4554
sg17
g45
sg19
g20
sa(dp4555
g6
g7
(g11
S'R\xb8\x1e\x85\xeb\xc1R@'
p4556
tp4557
Rp4558
sg17
g50
sg19
g20
sa(dp4559
g6
g7
(g11
S'{\x14\xaeG\xe1jT@'
p4560
tp4561
Rp4562
sg17
g55
sg19
g20
sa(dp4563
g6
g7
(g11
S'q=\n\xd7\xa3p\xed\xbf'
p4564
tp4565
Rp4566
sg17
g60
sg19
g20
sa(dp4567
g6
g7
(g11
S'\xc3\xf5(\\\x8f\x02K\xc0'
p4568
tp4569
Rp4570
sg17
g65
sg19
g20
sa(dp4571
g6
g7
(g11
S'\xa4p=\n\xd7\xb3Q\xc0'
p4572
tp4573
Rp4574
sg17
g70
sg19
g20
sa(dp4575
g6
g7
(g11
S'\xa4p=\n\xd7\xa3\xf8\xbf'
p4576
tp4577
Rp4578
sg17
g75
sg19
g20
sa(dp4579
g6
g7
(g11
S'\xc3\xf5(\\\x8fB @'
p4580
tp4581
Rp4582
sg17
g80
sg19
g20
sa(dp4583
g6
g7
(g11
S'\xf6(\\\x8f\xc2\xd5U\xc0'
p4584
tp4585
Rp4586
sg17
g85
sg19
g20
sa(dp4587
g6
g7
(g11
S'\n\xd7\xa3p=\x8a%\xc0'
p4588
tp4589
Rp4590
sg17
g90
sg19
g20
sa(dp4591
g6
g7
(g11
S'\xb8\x1e\x85\xebQ\xb8\x10@'
p4592
tp4593
Rp4594
sg17
g95
sg19
g20
sa(dp4595
g6
g7
(g11
S'33333sP\xc0'
p4596
tp4597
Rp4598
sg17
g100
sg19
g20
sa(dp4599
g6
g7
(g11
S'\\\x8f\xc2\xf5(\\1@'
p4600
tp4601
Rp4602
sg17
g105
sg19
g20
sa(dp4603
g6
g7
(g11
S')\\\x8f\xc2\xf5\x08A@'
p4604
tp4605
Rp4606
sg17
g110
sg19
g20
sa(dp4607
g6
g7
(g11
S'33333\x13I@'
p4608
tp4609
Rp4610
sg17
g115
sg19
g20
sa(dp4611
g6
g7
(g11
S')\\\x8f\xc2\xf5\xa8N@'
p4612
tp4613
Rp4614
sg17
g120
sg19
g20
sa(dp4615
g6
g7
(g11
S'\xc3\xf5(\\\x8f\x029@'
p4616
tp4617
Rp4618
sg17
g125
sg19
g20
sa(dp4619
g6
g7
(g11
S'\n\xd7\xa3p=\x8aG@'
p4620
tp4621
Rp4622
sg17
g130
sg19
g20
sa(dp4623
g6
g7
(g11
S'\xf6(\\\x8f\xc2u6\xc0'
p4624
tp4625
Rp4626
sg17
g135
sg19
g20
sa(dp4627
g6
g7
(g11
S'\n\xd7\xa3p=\xfaX@'
p4628
tp4629
Rp4630
sg17
g140
sg19
g20
sa(dp4631
g6
g7
(g11
S')\\\x8f\xc2\xf5\xc8K@'
p4632
tp4633
Rp4634
sg17
g145
sg19
g20
sa(dp4635
g6
g7
(g11
S'q=\n\xd7\xa3\xc0P@'
p4636
tp4637
Rp4638
sg17
g150
sg19
g20
sa(dp4639
g6
g7
(g11
S'\xaeG\xe1z\x14\xae\xff?'
p4640
tp4641
Rp4642
sg17
g155
sg19
g20
sa(dp4643
g6
g7
(g11
S'\x14\xaeG\xe1z\xf4X\xc0'
p4644
tp4645
Rp4646
sg17
g160
sg19
g20
sasg161
g162
sa(dp4647
g2
I1
sg3
(lp4648
(dp4649
g6
g7
(g11
S'q=\n\xd7\xa3\x10S\xc0'
p4650
tp4651
Rp4652
sg17
g18
sg19
g20
sa(dp4653
g6
g7
(g11
S'\xe1z\x14\xaeGa3\xc0'
p4654
tp4655
Rp4656
sg17
g25
sg19
g20
sa(dp4657
g6
g7
(g11
S'\xb8\x1e\x85\xebQ\xd8T@'
p4658
tp4659
Rp4660
sg17
g30
sg19
g20
sa(dp4661
g6
g7
(g11
S'\xc2\xf5(\\\x8f\x820@'
p4662
tp4663
Rp4664
sg17
g35
sg19
g20
sa(dp4665
g6
g7
(g11
S'\n\xd7\xa3p=\nE\xc0'
p4666
tp4667
Rp4668
sg17
g40
sg19
g20
sa(dp4669
g6
g7
(g11
S'\xb8\x1e\x85\xebQx=@'
p4670
tp4671
Rp4672
sg17
g45
sg19
g20
sa(dp4673
g6
g7
(g11
S'\xf6(\\\x8f\xc2\xa5R@'
p4674
tp4675
Rp4676
sg17
g50
sg19
g20
sa(dp4677
g6
g7
(g11
S'33333\xa3T@'
p4678
tp4679
Rp4680
sg17
g55
sg19
g20
sa(dp4681
g6
g7
(g11
S'\x14\xaeG\xe1z\x14\x04@'
p4682
tp4683
Rp4684
sg17
g60
sg19
g20
sa(dp4685
g6
g7
(g11
S'\x1f\x85\xebQ\xb8~K\xc0'
p4686
tp4687
Rp4688
sg17
g65
sg19
g20
sa(dp4689
g6
g7
(g11
S'\x00\x00\x00\x00\x00\xd0Q\xc0'
p4690
tp4691
Rp4692
sg17
g70
sg19
g20
sa(dp4693
g6
g7
(g11
S'\xecQ\xb8\x1e\x85\xeb\r\xc0'
p4694
tp4695
Rp4696
sg17
g75
sg19
g20
sa(dp4697
g6
g7
(g11
S'\xc3\xf5(\\\x8fB#\xc0'
p4698
tp4699
Rp4700
sg17
g80
sg19
g20
sa(dp4701
g6
g7
(g11
S'H\xe1z\x14\xae\xf7U\xc0'
p4702
tp4703
Rp4704
sg17
g85
sg19
g20
sa(dp4705
g6
g7
(g11
S'fffff\xe6%\xc0'
p4706
tp4707
Rp4708
sg17
g90
sg19
g20
sa(dp4709
g6
g7
(g11
S'\x1f\x85\xebQ\xb8\x1e\x1f@'
p4710
tp4711
Rp4712
sg17
g95
sg19
g20
sa(dp4713
g6
g7
(g11
S'\n\xd7\xa3p=\xcaJ\xc0'
p4714
tp4715
Rp4716
sg17
g100
sg19
g20
sa(dp4717
g6
g7
(g11
S'\xb8\x1e\x85\xebQ\xf84@'
p4718
tp4719
Rp4720
sg17
g105
sg19
g20
sa(dp4721
g6
g7
(g11
S'\\\x8f\xc2\xf5(\\1@'
p4722
tp4723
Rp4724
sg17
g110
sg19
g20
sa(dp4725
g6
g7
(g11
S'\x1f\x85\xebQ\xb8\xdeI@'
p4726
tp4727
Rp4728
sg17
g115
sg19
g20
sa(dp4729
g6
g7
(g11
S'\xd7\xa3p=\n\xb7X@'
p4730
tp4731
Rp4732
sg17
g120
sg19
g20
sa(dp4733
g6
g7
(g11
S'\x85\xebQ\xb8\x1eE9@'
p4734
tp4735
Rp4736
sg17
g125
sg19
g20
sa(dp4737
g6
g7
(g11
S'\xaeG\xe1z\x14\xaeH@'
p4738
tp4739
Rp4740
sg17
g130
sg19
g20
sa(dp4741
g6
g7
(g11
S'{\x14\xaeG\xe1:5\xc0'
p4742
tp4743
Rp4744
sg17
g135
sg19
g20
sa(dp4745
g6
g7
(g11
S'\xd7\xa3p=\n\x87S@'
p4746
tp4747
Rp4748
sg17
g140
sg19
g20
sa(dp4749
g6
g7
(g11
S'\x8f\xc2\xf5(\\\xefK@'
p4750
tp4751
Rp4752
sg17
g145
sg19
g20
sa(dp4753
g6
g7
(g11
S'\xcd\xcc\xcc\xcc\xcclN@'
p4754
tp4755
Rp4756
sg17
g150
sg19
g20
sa(dp4757
g6
g7
(g11
S'\x14\xaeG\xe1z\x14\xfa?'
p4758
tp4759
Rp4760
sg17
g155
sg19
g20
sa(dp4761
g6
g7
(g11
S'\xaeG\xe1z\x14>Y\xc0'
p4762
tp4763
Rp4764
sg17
g160
sg19
g20
sasg161
g162
sa(dp4765
g2
I1
sg3
(lp4766
(dp4767
g6
g7
(g11
S'=\n\xd7\xa3p\xcdR\xc0'
p4768
tp4769
Rp4770
sg17
g18
sg19
g20
sa(dp4771
g6
g7
(g11
S'\x85\xebQ\xb8\x1e%O\xc0'
p4772
tp4773
Rp4774
sg17
g25
sg19
g20
sa(dp4775
g6
g7
(g11
S'\xc3\xf5(\\\x8f2U@'
p4776
tp4777
Rp4778
sg17
g30
sg19
g20
sa(dp4779
g6
g7
(g11
S'\xcc\xcc\xcc\xcc\xcc\xcc0@'
p4780
tp4781
Rp4782
sg17
g35
sg19
g20
sa(dp4783
g6
g7
(g11
S'\xf6(\\\x8f\xc2UE\xc0'
p4784
tp4785
Rp4786
sg17
g40
sg19
g20
sa(dp4787
g6
g7
(g11
S'\xaeG\xe1z\x14.=@'
p4788
tp4789
Rp4790
sg17
g45
sg19
g20
sa(dp4791
g6
g7
(g11
S'33333sR@'
p4792
tp4793
Rp4794
sg17
g50
sg19
g20
sa(dp4795
g6
g7
(g11
S'q=\n\xd7\xa3\x90T@'
p4796
tp4797
Rp4798
sg17
g55
sg19
g20
sa(dp4799
g6
g7
(g11
S'{\x14\xaeG\xe1z$@'
p4800
tp4801
Rp4802
sg17
g60
sg19
g20
sa(dp4803
g6
g7
(g11
S'\x85\xebQ\xb8\x1e\x05L\xc0'
p4804
tp4805
Rp4806
sg17
g65
sg19
g20
sa(dp4807
g6
g7
(g11
S'\xf6(\\\x8f\xc25R\xc0'
p4808
tp4809
Rp4810
sg17
g70
sg19
g20
sa(dp4811
g6
g7
(g11
S'\xaeG\xe1z\x14n7@'
p4812
tp4813
Rp4814
sg17
g75
sg19
g20
sa(dp4815
g6
g7
(g11
S'\\\x8f\xc2\xf5(\\\x03\xc0'
p4816
tp4817
Rp4818
sg17
g80
sg19
g20
sa(dp4819
g6
g7
(g11
S'\n\xd7\xa3p=*V\xc0'
p4820
tp4821
Rp4822
sg17
g85
sg19
g20
sa(dp4823
g6
g7
(g11
S'\xaeG\xe1z\x14.%\xc0'
p4824
tp4825
Rp4826
sg17
g90
sg19
g20
sa(dp4827
g6
g7
(g11
S'\x9a\x99\x99\x99\x99\x99\x1b@'
p4828
tp4829
Rp4830
sg17
g95
sg19
g20
sa(dp4831
g6
g7
(g11
S'\xaeG\xe1z\x14nE\xc0'
p4832
tp4833
Rp4834
sg17
g100
sg19
g20
sa(dp4835
g6
g7
(g11
S'=\n\xd7\xa3p\xbd3@'
p4836
tp4837
Rp4838
sg17
g105
sg19
g20
sa(dp4839
g6
g7
(g11
S')\\\x8f\xc2\xf5\xe8;\xc0'
p4840
tp4841
Rp4842
sg17
g110
sg19
g20
sa(dp4843
g6
g7
(g11
S')\\\x8f\xc2\xf5\xe8I@'
p4844
tp4845
Rp4846
sg17
g115
sg19
g20
sa(dp4847
g6
g7
(g11
S'\x8f\xc2\xf5(\\\x8f\\@'
p4848
tp4849
Rp4850
sg17
g120
sg19
g20
sa(dp4851
g6
g7
(g11
S'\x85\xebQ\xb8\x1eE9@'
p4852
tp4853
Rp4854
sg17
g125
sg19
g20
sa(dp4855
g6
g7
(g11
S')\\\x8f\xc2\xf5HD@'
p4856
tp4857
Rp4858
sg17
g130
sg19
g20
sa(dp4859
g6
g7
(g11
S'{\x14\xaeG\xe1\x9aA\xc0'
p4860
tp4861
Rp4862
sg17
g135
sg19
g20
sa(dp4863
g6
g7
(g11
S'\xcd\xcc\xcc\xcc\xcc\xccK@'
p4864
tp4865
Rp4866
sg17
g140
sg19
g20
sa(dp4867
g6
g7
(g11
S'\x14\xaeG\xe1z\x14L@'
p4868
tp4869
Rp4870
sg17
g145
sg19
g20
sa(dp4871
g6
g7
(g11
S'\xcd\xcc\xcc\xcc\xcclN@'
p4872
tp4873
Rp4874
sg17
g150
sg19
g20
sa(dp4875
g6
g7
(g11
S'\x00\x00\x00\x00\x00\x00\xe8?'
p4876
tp4877
Rp4878
sg17
g155
sg19
g20
sa(dp4879
g6
g7
(g11
S'\x14\xaeG\xe1z\xf4X\xc0'
p4880
tp4881
Rp4882
sg17
g160
sg19
g20
sasg161
g162
sa(dp4883
g2
I1
sg3
(lp4884
(dp4885
g6
g7
(g11
S'\x85\xebQ\xb8\x1e\x95R\xc0'
p4886
tp4887
Rp4888
sg17
g18
sg19
g20
sa(dp4889
g6
g7
(g11
S'=\n\xd7\xa3p\xfdL\xc0'
p4890
tp4891
Rp4892
sg17
g25
sg19
g20
sa(dp4893
g6
g7
(g11
S'\xf6(\\\x8f\xc2\x05U@'
p4894
tp4895
Rp4896
sg17
g30
sg19
g20
sa(dp4897
g6
g7
(g11
S'\x9a\x99\x99\x99\x99\x191@'
p4898
tp4899
Rp4900
sg17
g35
sg19
g20
sa(dp4901
g6
g7
(g11
S'{\x14\xaeG\xe1zE\xc0'
p4902
tp4903
Rp4904
sg17
g40
sg19
g20
sa(dp4905
g6
g7
(g11
S'\xaeG\xe1z\x14.=@'
p4906
tp4907
Rp4908
sg17
g45
sg19
g20
sa(dp4909
g6
g7
(g11
S'\xf6(\\\x8f\xc25R@'
p4910
tp4911
Rp4912
sg17
g50
sg19
g20
sa(dp4913
g6
g7
(g11
S'33333\xa3T@'
p4914
tp4915
Rp4916
sg17
g55
sg19
g20
sa(dp4917
g6
g7
(g11
S'\x85\xebQ\xb8\x1eeF@'
p4918
tp4919
Rp4920
sg17
g60
sg19
g20
sa(dp4921
g6
g7
(g11
S'\xf6(\\\x8f\xc2uL\xc0'
p4922
tp4923
Rp4924
sg17
g65
sg19
g20
sa(dp4925
g6
g7
(g11
S'\x1f\x85\xebQ\xb8~R\xc0'
p4926
tp4927
Rp4928
sg17
g70
sg19
g20
sa(dp4929
g6
g7
(g11
S'\x8f\xc2\xf5(\\\x8f\x00@'
p4930
tp4931
Rp4932
sg17
g75
sg19
g20
sa(dp4933
g6
g7
(g11
S'\xb8\x1e\x85\xebQ\xb8\x04@'
p4934
tp4935
Rp4936
sg17
g80
sg19
g20
sa(dp4937
g6
g7
(g11
S'\xe1z\x14\xaeGQV\xc0'
p4938
tp4939
Rp4940
sg17
g85
sg19
g20
sa(dp4941
g6
g7
(g11
S'{\x14\xaeG\xe1z$\xc0'
p4942
tp4943
Rp4944
sg17
g90
sg19
g20
sa(dp4945
g6
g7
(g11
S'\x00\x00\x00\x00\x00\x00(@'
p4946
tp4947
Rp4948
sg17
g95
sg19
g20
sa(dp4949
g6
g7
(g11
S')\\\x8f\xc2\xf5\x08E\xc0'
p4950
tp4951
Rp4952
sg17
g100
sg19
g20
sa(dp4953
g6
g7
(g11
S'\xecQ\xb8\x1e\x85k&@'
p4954
tp4955
Rp4956
sg17
g105
sg19
g20
sa(dp4957
g6
g7
(g11
S'\x1f\x85\xebQ\xb8\x9e<\xc0'
p4958
tp4959
Rp4960
sg17
g110
sg19
g20
sa(dp4961
g6
g7
(g11
S'\x14\xaeG\xe1z\xf4I@'
p4962
tp4963
Rp4964
sg17
g115
sg19
g20
sa(dp4965
g6
g7
(g11
S'\xcd\xcc\xcc\xcc\xcc\xbc\\@'
p4966
tp4967
Rp4968
sg17
g120
sg19
g20
sa(dp4969
g6
g7
(g11
S'\x85\xebQ\xb8\x1eE9@'
p4970
tp4971
Rp4972
sg17
g125
sg19
g20
sa(dp4973
g6
g7
(g11
S'fffffFC@'
p4974
tp4975
Rp4976
sg17
g130
sg19
g20
sa(dp4977
g6
g7
(g11
S'=\n\xd7\xa3p\xfd@\xc0'
p4978
tp4979
Rp4980
sg17
g135
sg19
g20
sa(dp4981
g6
g7
(g11
S'\x14\xaeG\xe1z\xb4J@'
p4982
tp4983
Rp4984
sg17
g140
sg19
g20
sa(dp4985
g6
g7
(g11
S'\x9a\x99\x99\x99\x999L@'
p4986
tp4987
Rp4988
sg17
g145
sg19
g20
sa(dp4989
g6
g7
(g11
S'\xcd\xcc\xcc\xcc\xcclN@'
p4990
tp4991
Rp4992
sg17
g150
sg19
g20
sa(dp4993
g6
g7
(g11
S'\xa4p=\n\xd7\xa3\xc0\xbf'
p4994
tp4995
Rp4996
sg17
g155
sg19
g20
sa(dp4997
g6
g7
(g11
S'\xcd\xcc\xcc\xcc\xcc\xbcX\xc0'
p4998
tp4999
Rp5000
sg17
g160
sg19
g20
sasg161
g162
sa(dp5001
g2
I1
sg3
(lp5002
(dp5003
g6
g7
(g11
S'=\n\xd7\xa3pmR\xc0'
p5004
tp5005
Rp5006
sg17
g18
sg19
g20
sa(dp5007
g6
g7
(g11
S'{\x14\xaeG\xe1\xdaL\xc0'
p5008
tp5009
Rp5010
sg17
g25
sg19
g20
sa(dp5011
g6
g7
(g11
S'\xa4p=\n\xd7\xe3T@'
p5012
tp5013
Rp5014
sg17
g30
sg19
g20
sa(dp5015
g6
g7
(g11
S'\xaeG\xe1z\x14\xae1@'
p5016
tp5017
Rp5018
sg17
g35
sg19
g20
sa(dp5019
g6
g7
(g11
S'\xe1z\x14\xaeG\xa1E\xc0'
p5020
tp5021
Rp5022
sg17
g40
sg19
g20
sa(dp5023
g6
g7
(g11
S'\xaeG\xe1z\x14.=@'
p5024
tp5025
Rp5026
sg17
g45
sg19
g20
sa(dp5027
g6
g7
(g11
S'\xa4p=\n\xd7\x13R@'
p5028
tp5029
Rp5030
sg17
g50
sg19
g20
sa(dp5031
g6
g7
(g11
S'33333\xa3T@'
p5032
tp5033
Rp5034
sg17
g55
sg19
g20
sa(dp5035
g6
g7
(g11
S'\x85\xebQ\xb8\x1eeF@'
p5036
tp5037
Rp5038
sg17
g60
sg19
g20
sa(dp5039
g6
g7
(g11
S'=\n\xd7\xa3p\xfdL\xc0'
p5040
tp5041
Rp5042
sg17
g65
sg19
g20
sa(dp5043
g6
g7
(g11
S'\xf6(\\\x8f\xc2\xa5R\xc0'
p5044
tp5045
Rp5046
sg17
g70
sg19
g20
sa(dp5047
g6
g7
(g11
S'\xf6(\\\x8f\xc2\xf5\x08@'
p5048
tp5049
Rp5050
sg17
g75
sg19
g20
sa(dp5051
g6
g7
(g11
S'333333\xf7?'
p5052
tp5053
Rp5054
sg17
g80
sg19
g20
sa(dp5055
g6
g7
(g11
S'\x14\xaeG\xe1z\x84V\xc0'
p5056
tp5057
Rp5058
sg17
g85
sg19
g20
sa(dp5059
g6
g7
(g11
S')\\\x8f\xc2\xf5\xa8$\xc0'
p5060
tp5061
Rp5062
sg17
g90
sg19
g20
sa(dp5063
g6
g7
(g11
S"R\xb8\x1e\x85\xeb\xd1'@"
p5064
tp5065
Rp5066
sg17
g95
sg19
g20
sa(dp5067
g6
g7
(g11
S'\x14\xaeG\xe1z\xb4N\xc0'
p5068
tp5069
Rp5070
sg17
g100
sg19
g20
sa(dp5071
g6
g7
(g11
S'\x85\xebQ\xb8\x1e\x85(@'
p5072
tp5073
Rp5074
sg17
g105
sg19
g20
sa(dp5075
g6
g7
(g11
S'{\x14\xaeG\xe1:=\xc0'
p5076
tp5077
Rp5078
sg17
g110
sg19
g20
sa(dp5079
g6
g7
(g11
S'\xd7\xa3p=\n\x17J@'
p5080
tp5081
Rp5082
sg17
g115
sg19
g20
sa(dp5083
g6
g7
(g11
S'\x85\xebQ\xb8\x1e\x95\\@'
p5084
tp5085
Rp5086
sg17
g120
sg19
g20
sa(dp5087
g6
g7
(g11
S'\xb8\x1e\x85\xebQ\xf8<@'
p5088
tp5089
Rp5090
sg17
g125
sg19
g20
sa(dp5091
g6
g7
(g11
S'\xa4p=\n\xd7\xe3C@'
p5092
tp5093
Rp5094
sg17
g130
sg19
g20
sa(dp5095
g6
g7
(g11
S'\x85\xebQ\xb8\x1e\xc5@\xc0'
p5096
tp5097
Rp5098
sg17
g135
sg19
g20
sa(dp5099
g6
g7
(g11
S'\xe1z\x14\xaeGQX@'
p5100
tp5101
Rp5102
sg17
g140
sg19
g20
sa(dp5103
g6
g7
(g11
S'\x1f\x85\xebQ\xb8^L@'
p5104
tp5105
Rp5106
sg17
g145
sg19
g20
sa(dp5107
g6
g7
(g11
S'H\xe1z\x14\xaeGN@'
p5108
tp5109
Rp5110
sg17
g150
sg19
g20
sa(dp5111
g6
g7
(g11
S'\xa4p=\n\xd7\xa3\xf8\xbf'
p5112
tp5113
Rp5114
sg17
g155
sg19
g20
sa(dp5115
g6
g7
(g11
S'\xecQ\xb8\x1e\x85\xabX\xc0'
p5116
tp5117
Rp5118
sg17
g160
sg19
g20
sasg161
g162
sa(dp5119
g2
I1
sg3
(lp5120
(dp5121
g6
g7
(g11
S'=\n\xd7\xa3p\xfdH\xc0'
p5122
tp5123
Rp5124
sg17
g18
sg19
g20
sa(dp5125
g6
g7
(g11
S'R\xb8\x1e\x85\xeb\xf1L\xc0'
p5126
tp5127
Rp5128
sg17
g25
sg19
g20
sa(dp5129
g6
g7
(g11
S'33333\xd3T@'
p5130
tp5131
Rp5132
sg17
g30
sg19
g20
sa(dp5133
g6
g7
(g11
S'\xaeG\xe1z\x14\xae1@'
p5134
tp5135
Rp5136
sg17
g35
sg19
g20
sa(dp5137
g6
g7
(g11
S'\xecQ\xb8\x1e\x85\xebE\xc0'
p5138
tp5139
Rp5140
sg17
g40
sg19
g20
sa(dp5141
g6
g7
(g11
S'\x8f\xc2\xf5(\\\xefK@'
p5142
tp5143
Rp5144
sg17
g45
sg19
g20
sa(dp5145
g6
g7
(g11
S'=\n\xd7\xa3p\xfdQ@'
p5146
tp5147
Rp5148
sg17
g50
sg19
g20
sa(dp5149
g6
g7
(g11
S'33333\xa3T@'
p5150
tp5151
Rp5152
sg17
g55
sg19
g20
sa(dp5153
g6
g7
(g11
S'q=\n\xd7\xa3pF@'
p5154
tp5155
Rp5156
sg17
g60
sg19
g20
sa(dp5157
g6
g7
(g11
S'R\xb8\x1e\x85\xeb\xd1*\xc0'
p5158
tp5159
Rp5160
sg17
g65
sg19
g20
sa(dp5161
g6
g7
(g11
S')\\\x8f\xc2\xf5\x08E\xc0'
p5162
tp5163
Rp5164
sg17
g70
sg19
g20
sa(dp5165
g6
g7
(g11
S'\x9a\x99\x99\x99\x99\x99\x07@'
p5166
tp5167
Rp5168
sg17
g75
sg19
g20
sa(dp5169
g6
g7
(g11
S'\xe1z\x14\xaeG\xe1\xea?'
p5170
tp5171
Rp5172
sg17
g80
sg19
g20
sa(dp5173
g6
g7
(g11
S'=\n\xd7\xa3p\xfd>\xc0'
p5174
tp5175
Rp5176
sg17
g85
sg19
g20
sa(dp5177
g6
g7
(g11
S'\x1f\x85\xebQ\xb8\x9e-\xc0'
p5178
tp5179
Rp5180
sg17
g90
sg19
g20
sa(dp5181
g6
g7
(g11
S'\xaeG\xe1z\x14.%@'
p5182
tp5183
Rp5184
sg17
g95
sg19
g20
sa(dp5185
g6
g7
(g11
S'\xd7\xa3p=\n\xf7N\xc0'
p5186
tp5187
Rp5188
sg17
g100
sg19
g20
sa(dp5189
g6
g7
(g11
S'\\\x8f\xc2\xf5(\\(@'
p5190
tp5191
Rp5192
sg17
g105
sg19
g20
sa(dp5193
g6
g7
(g11
S'\xb8\x1e\x85\xebQ80\xc0'
p5194
tp5195
Rp5196
sg17
g110
sg19
g20
sa(dp5197
g6
g7
(g11
S'\xe1z\x14\xaeG!J@'
p5198
tp5199
Rp5200
sg17
g115
sg19
g20
sa(dp5201
g6
g7
(g11
S'=\n\xd7\xa3pm\\@'
p5202
tp5203
Rp5204
sg17
g120
sg19
g20
sa(dp5205
g6
g7
(g11
S'\xcd\xcc\xcc\xcc\xcc\x0c=@'
p5206
tp5207
Rp5208
sg17
g125
sg19
g20
sa(dp5209
g6
g7
(g11
S'\x85\xebQ\xb8\x1e\x05"\xc0'
p5210
tp5211
Rp5212
sg17
g130
sg19
g20
sa(dp5213
g6
g7
(g11
S'\xe1z\x14\xaeG\xe1\x06@'
p5214
tp5215
Rp5216
sg17
g135
sg19
g20
sa(dp5217
g6
g7
(g11
S'\xc3\xf5(\\\x8fbX@'
p5218
tp5219
Rp5220
sg17
g140
sg19
g20
sa(dp5221
g6
g7
(g11
S'\x9a\x99\x99\x99\x999L@'
p5222
tp5223
Rp5224
sg17
g145
sg19
g20
sa(dp5225
g6
g7
(g11
S'\xa4p=\n\xd7\xe3O@'
p5226
tp5227
Rp5228
sg17
g150
sg19
g20
sa(dp5229
g6
g7
(g11
S'\x8f\xc2\xf5(\\\x8f3@'
p5230
tp5231
Rp5232
sg17
g155
sg19
g20
sa(dp5233
g6
g7
(g11
S'\x00\x00\x00\x00\x00`@\xc0'
p5234
tp5235
Rp5236
sg17
g160
sg19
g20
sasg161
g162
sa(dp5237
g2
I1
sg3
(lp5238
(dp5239
g6
g7
(g11
S'q=\n\xd7\xa3\xd0H\xc0'
p5240
tp5241
Rp5242
sg17
g18
sg19
g20
sa(dp5243
g6
g7
(g11
S'\xc3\xf5(\\\x8fbM\xc0'
p5244
tp5245
Rp5246
sg17
g25
sg19
g20
sa(dp5247
g6
g7
(g11
S'\n\xd7\xa3p=\xfaT@'
p5248
tp5249
Rp5250
sg17
g30
sg19
g20
sa(dp5251
g6
g7
(g11
S'\x9a\x99\x99\x99\x99\x191@'
p5252
tp5253
Rp5254
sg17
g35
sg19
g20
sa(dp5255
g6
g7
(g11
S'\xecQ\xb8\x1e\x85\xebE\xc0'
p5256
tp5257
Rp5258
sg17
g40
sg19
g20
sa(dp5259
g6
g7
(g11
S'\x1f\x85\xebQ\xb8~K@'
p5260
tp5261
Rp5262
sg17
g45
sg19
g20
sa(dp5263
g6
g7
(g11
S'=\n\xd7\xa3p\xfdQ@'
p5264
tp5265
Rp5266
sg17
g50
sg19
g20
sa(dp5267
g6
g7
(g11
S'33333\xa3T@'
p5268
tp5269
Rp5270
sg17
g55
sg19
g20
sa(dp5271
g6
g7
(g11
S'fffff\x86F@'
p5272
tp5273
Rp5274
sg17
g60
sg19
g20
sa(dp5275
g6
g7
(g11
S'\xf6(\\\x8f\xc25;\xc0'
p5276
tp5277
Rp5278
sg17
g65
sg19
g20
sa(dp5279
g6
g7
(g11
S"H\xe1z\x14\xae'D\xc0"
p5280
tp5281
Rp5282
sg17
g70
sg19
g20
sa(dp5283
g6
g7
(g11
S'\xaeG\xe1z\x14\xae\t@'
p5284
tp5285
Rp5286
sg17
g75
sg19
g20
sa(dp5287
g6
g7
(g11
S'\x9a\x99\x99\x99\x99\x99\xd9?'
p5288
tp5289
Rp5290
sg17
g80
sg19
g20
sa(dp5291
g6
g7
(g11
S'\x8f\xc2\xf5(\\\x8fA\xc0'
p5292
tp5293
Rp5294
sg17
g85
sg19
g20
sa(dp5295
g6
g7
(g11
S'\xd7\xa3p=\nW7\xc0'
p5296
tp5297
Rp5298
sg17
g90
sg19
g20
sa(dp5299
g6
g7
(g11
S'=\n\xd7\xa3p=&@'
p5300
tp5301
Rp5302
sg17
g95
sg19
g20
sa(dp5303
g6
g7
(g11
S'33333sO\xc0'
p5304
tp5305
Rp5306
sg17
g100
sg19
g20
sa(dp5307
g6
g7
(g11
S'\x85\xebQ\xb8\x1e\x85(@'
p5308
tp5309
Rp5310
sg17
g105
sg19
g20
sa(dp5311
g6
g7
(g11
S'\n\xd7\xa3p=\n/\xc0'
p5312
tp5313
Rp5314
sg17
g110
sg19
g20
sa(dp5315
g6
g7
(g11
S'\xcd\xcc\xcc\xcc\xcc,J@'
p5316
tp5317
Rp5318
sg17
g115
sg19
g20
sa(dp5319
g6
g7
(g11
S'\x14\xaeG\xe1z\x84Z@'
p5320
tp5321
Rp5322
sg17
g120
sg19
g20
sa(dp5323
g6
g7
(g11
S'R\xb8\x1e\x85\xebQ=@'
p5324
tp5325
Rp5326
sg17
g125
sg19
g20
sa(dp5327
g6
g7
(g11
S'\xd7\xa3p=\n\xd7$\xc0'
p5328
tp5329
Rp5330
sg17
g130
sg19
g20
sa(dp5331
g6
g7
(g11
S'\xd7\xa3p=\n\x972@'
p5332
tp5333
Rp5334
sg17
g135
sg19
g20
sa(dp5335
g6
g7
(g11
S'\x85\xebQ\xb8\x1e\x95X@'
p5336
tp5337
Rp5338
sg17
g140
sg19
g20
sa(dp5339
g6
g7
(g11
S'\x85\xebQ\xb8\x1e\x85L@'
p5340
tp5341
Rp5342
sg17
g145
sg19
g20
sa(dp5343
g6
g7
(g11
S'\xa4p=\n\xd7\xe3O@'
p5344
tp5345
Rp5346
sg17
g150
sg19
g20
sa(dp5347
g6
g7
(g11
S'\xe1z\x14\xaeG\xe1\x13\xc0'
p5348
tp5349
Rp5350
sg17
g155
sg19
g20
sa(dp5351
g6
g7
(g11
S'\xa4p=\n\xd7\xa3*\xc0'
p5352
tp5353
Rp5354
sg17
g160
sg19
g20
sasg161
g162
sa(dp5355
g2
I1
sg3
(lp5356
(dp5357
g6
g7
(g11
S'\x14\xaeG\xe1z\xf4I\xc0'
p5358
tp5359
Rp5360
sg17
g18
sg19
g20
sa(dp5361
g6
g7
(g11
S'\xecQ\xb8\x1e\x85kL\xc0'
p5362
tp5363
Rp5364
sg17
g25
sg19
g20
sa(dp5365
g6
g7
(g11
S'\x9a\x99\x99\x99\x99\x89V@'
p5366
tp5367
Rp5368
sg17
g30
sg19
g20
sa(dp5369
g6
g7
(g11
S'\xb0G\xe1z\x14\xae.@'
p5370
tp5371
Rp5372
sg17
g35
sg19
g20
sa(dp5373
g6
g7
(g11
S'\xd7\xa3p=\n\xd7B\xc0'
p5374
tp5375
Rp5376
sg17
g40
sg19
g20
sa(dp5377
g6
g7
(g11
S'\n\xd7\xa3p=\nE@'
p5378
tp5379
Rp5380
sg17
g45
sg19
g20
sa(dp5381
g6
g7
(g11
S'R\xb8\x1e\x85\xeb\xf1Q@'
p5382
tp5383
Rp5384
sg17
g50
sg19
g20
sa(dp5385
g6
g7
(g11
S'\xf6(\\\x8f\xc2ET@'
p5386
tp5387
Rp5388
sg17
g55
sg19
g20
sa(dp5389
g6
g7
(g11
S'=\n\xd7\xa3p\x9dF@'
p5390
tp5391
Rp5392
sg17
g60
sg19
g20
sa(dp5393
g6
g7
(g11
S'\xe1z\x14\xaeGa3\xc0'
p5394
tp5395
Rp5396
sg17
g65
sg19
g20
sa(dp5397
g6
g7
(g11
S'q=\n\xd7\xa3\xb0E\xc0'
p5398
tp5399
Rp5400
sg17
g70
sg19
g20
sa(dp5401
g6
g7
(g11
S'\n\xd7\xa3p=\x8a9@'
p5402
tp5403
Rp5404
sg17
g75
sg19
g20
sa(dp5405
g6
g7
(g11
S'\\\x8f\xc2\xf5(\xdc+@'
p5406
tp5407
Rp5408
sg17
g80
sg19
g20
sa(dp5409
g6
g7
(g11
S'\x85\xebQ\xb8\x1eeB\xc0'
p5410
tp5411
Rp5412
sg17
g85
sg19
g20
sa(dp5413
g6
g7
(g11
S'\x8f\xc2\xf5(\\O8\xc0'
p5414
tp5415
Rp5416
sg17
g90
sg19
g20
sa(dp5417
g6
g7
(g11
S'\\\x8f\xc2\xf5(\\\x1d@'
p5418
tp5419
Rp5420
sg17
g95
sg19
g20
sa(dp5421
g6
g7
(g11
S'\x9a\x99\x99\x99\x99YN\xc0'
p5422
tp5423
Rp5424
sg17
g100
sg19
g20
sa(dp5425
g6
g7
(g11
S'\xd7\xa3p=\n\xd70@'
p5426
tp5427
Rp5428
sg17
g105
sg19
g20
sa(dp5429
g6
g7
(g11
S'\x9a\x99\x99\x99\x99\x19*\xc0'
p5430
tp5431
Rp5432
sg17
g110
sg19
g20
sa(dp5433
g6
g7
(g11
S'\x14\xaeG\xe1zTH@'
p5434
tp5435
Rp5436
sg17
g115
sg19
g20
sa(dp5437
g6
g7
(g11
S'\xa4p=\n\xd7CN@'
p5438
tp5439
Rp5440
sg17
g120
sg19
g20
sa(dp5441
g6
g7
(g11
S'\x9a\x99\x99\x99\x99Y<@'
p5442
tp5443
Rp5444
sg17
g125
sg19
g20
sa(dp5445
g6
g7
(g11
S')\\\x8f\xc2\xf5(.\xc0'
p5446
tp5447
Rp5448
sg17
g130
sg19
g20
sa(dp5449
g6
g7
(g11
S'fffff\xa63@'
p5450
tp5451
Rp5452
sg17
g135
sg19
g20
sa(dp5453
g6
g7
(g11
S'\xecQ\xb8\x1e\x85\xabX@'
p5454
tp5455
Rp5456
sg17
g140
sg19
g20
sa(dp5457
g6
g7
(g11
S'\x1f\x85\xebQ\xb8~K@'
p5458
tp5459
Rp5460
sg17
g145
sg19
g20
sa(dp5461
g6
g7
(g11
S'\xc3\xf5(\\\x8fbG@'
p5462
tp5463
Rp5464
sg17
g150
sg19
g20
sa(dp5465
g6
g7
(g11
S'\xf6(\\\x8f\xc2\xf5\x08\xc0'
p5466
tp5467
Rp5468
sg17
g155
sg19
g20
sa(dp5469
g6
g7
(g11
S'\x9a\x99\x99\x99\x99YF\xc0'
p5470
tp5471
Rp5472
sg17
g160
sg19
g20
sasg161
g162
sa(dp5473
g2
I1
sg3
(lp5474
(dp5475
g6
g7
(g11
S'fffff\xa6I\xc0'
p5476
tp5477
Rp5478
sg17
g18
sg19
g20
sa(dp5479
g6
g7
(g11
S'\xc3\xf5(\\\x8f\xc2K\xc0'
p5480
tp5481
Rp5482
sg17
g25
sg19
g20
sa(dp5483
g6
g7
(g11
S'{\x14\xaeG\xe1\x9aV@'
p5484
tp5485
Rp5486
sg17
g30
sg19
g20
sa(dp5487
g6
g7
(g11
S'\xb0G\xe1z\x14\xae.@'
p5488
tp5489
Rp5490
sg17
g35
sg19
g20
sa(dp5491
g6
g7
(g11
S'=\n\xd7\xa3p\xfdB\xc0'
p5492
tp5493
Rp5494
sg17
g40
sg19
g20
sa(dp5495
g6
g7
(g11
S'\n\xd7\xa3p=\nE@'
p5496
tp5497
Rp5498
sg17
g45
sg19
g20
sa(dp5499
g6
g7
(g11
S'R\xb8\x1e\x85\xeb\xf1Q@'
p5500
tp5501
Rp5502
sg17
g50
sg19
g20
sa(dp5503
g6
g7
(g11
S'\xf6(\\\x8f\xc2ET@'
p5504
tp5505
Rp5506
sg17
g55
sg19
g20
sa(dp5507
g6
g7
(g11
S'R\xb8\x1e\x85\xeb\x91F@'
p5508
tp5509
Rp5510
sg17
g60
sg19
g20
sa(dp5511
g6
g7
(g11
S'\x14\xaeG\xe1zTL\xc0'
p5512
tp5513
Rp5514
sg17
g65
sg19
g20
sa(dp5515
g6
g7
(g11
S'\xe1z\x14\xaeGAI\xc0'
p5516
tp5517
Rp5518
sg17
g70
sg19
g20
sa(dp5519
g6
g7
(g11
S'\xd7\xa3p=\n\x97:@'
p5520
tp5521
Rp5522
sg17
g75
sg19
g20
sa(dp5523
g6
g7
(g11
S'=\n\xd7\xa3p=)@'
p5524
tp5525
Rp5526
sg17
g80
sg19
g20
sa(dp5527
g6
g7
(g11
S'\xcd\xcc\xcc\xcc\xcc\xecN\xc0'
p5528
tp5529
Rp5530
sg17
g85
sg19
g20
sa(dp5531
g6
g7
(g11
S'\xf6(\\\x8f\xc2\xf57\xc0'
p5532
tp5533
Rp5534
sg17
g90
sg19
g20
sa(dp5535
g6
g7
(g11
S'\xa4p=\n\xd7\xa3\x1c@'
p5536
tp5537
Rp5538
sg17
g95
sg19
g20
sa(dp5539
g6
g7
(g11
S'\xd7\xa3p=\n\x17N\xc0'
p5540
tp5541
Rp5542
sg17
g100
sg19
g20
sa(dp5543
g6
g7
(g11
S'\x14\xaeG\xe1zT2@'
p5544
tp5545
Rp5546
sg17
g105
sg19
g20
sa(dp5547
g6
g7
(g11
S'=\n\xd7\xa3p=)\xc0'
p5548
tp5549
Rp5550
sg17
g110
sg19
g20
sa(dp5551
g6
g7
(g11
S'333333H@'
p5552
tp5553
Rp5554
sg17
g115
sg19
g20
sa(dp5555
g6
g7
(g11
S'{\x14\xaeG\xe1\x9aM@'
p5556
tp5557
Rp5558
sg17
g120
sg19
g20
sa(dp5559
g6
g7
(g11
S'\xc3\xf5(\\\x8fB<@'
p5560
tp5561
Rp5562
sg17
g125
sg19
g20
sa(dp5563
g6
g7
(g11
S'R\xb8\x1e\x85\xeb\x910\xc0'
p5564
tp5565
Rp5566
sg17
g130
sg19
g20
sa(dp5567
g6
g7
(g11
S'q=\n\xd7\xa3p4@'
p5568
tp5569
Rp5570
sg17
g135
sg19
g20
sa(dp5571
g6
g7
(g11
S'H\xe1z\x14\xae\xc7X@'
p5572
tp5573
Rp5574
sg17
g140
sg19
g20
sa(dp5575
g6
g7
(g11
S'\xa4p=\n\xd7\xa3K@'
p5576
tp5577
Rp5578
sg17
g145
sg19
g20
sa(dp5579
g6
g7
(g11
S'\xe1z\x14\xaeG\x81F@'
p5580
tp5581
Rp5582
sg17
g150
sg19
g20
sa(dp5583
g6
g7
(g11
S'=\n\xd7\xa3p=\x08\xc0'
p5584
tp5585
Rp5586
sg17
g155
sg19
g20
sa(dp5587
g6
g7
(g11
S'\xf6(\\\x8f\xc2\xd5F\xc0'
p5588
tp5589
Rp5590
sg17
g160
sg19
g20
sasg161
g162
sa(dp5591
g2
I1
sg3
(lp5592
(dp5593
g6
g7
(g11
S'\xd7\xa3p=\nWI\xc0'
p5594
tp5595
Rp5596
sg17
g18
sg19
g20
sa(dp5597
g6
g7
(g11
S'\n\xd7\xa3p=\x8aK\xc0'
p5598
tp5599
Rp5600
sg17
g25
sg19
g20
sa(dp5601
g6
g7
(g11
S'\xecQ\xb8\x1e\x85\xabV@'
p5602
tp5603
Rp5604
sg17
g30
sg19
g20
sa(dp5605
g6
g7
(g11
S'\xb0G\xe1z\x14\xae.@'
p5606
tp5607
Rp5608
sg17
g35
sg19
g20
sa(dp5609
g6
g7
(g11
S'\xc3\xf5(\\\x8f"C\xc0'
p5610
tp5611
Rp5612
sg17
g40
sg19
g20
sa(dp5613
g6
g7
(g11
S'\n\xd7\xa3p=\nE@'
p5614
tp5615
Rp5616
sg17
g45
sg19
g20
sa(dp5617
g6
g7
(g11
S'R\xb8\x1e\x85\xeb\xf1Q@'
p5618
tp5619
Rp5620
sg17
g50
sg19
g20
sa(dp5621
g6
g7
(g11
S'\xf6(\\\x8f\xc2ET@'
p5622
tp5623
Rp5624
sg17
g55
sg19
g20
sa(dp5625
g6
g7
(g11
S'R\xb8\x1e\x85\xeb\x91F@'
p5626
tp5627
Rp5628
sg17
g60
sg19
g20
sa(dp5629
g6
g7
(g11
S'\xf6(\\\x8f\xc2\xa5X\xc0'
p5630
tp5631
Rp5632
sg17
g65
sg19
g20
sa(dp5633
g6
g7
(g11
S'=\n\xd7\xa3p\xfd6\xc0'
p5634
tp5635
Rp5636
sg17
g70
sg19
g20
sa(dp5637
g6
g7
(g11
S'\xcd\xcc\xcc\xcc\xccL;@'
p5638
tp5639
Rp5640
sg17
g75
sg19
g20
sa(dp5641
g6
g7
(g11
S'=\n\xd7\xa3p=)@'
p5642
tp5643
Rp5644
sg17
g80
sg19
g20
sa(dp5645
g6
g7
(g11
S'\xf6(\\\x8f\xc2\xa5R\xc0'
p5646
tp5647
Rp5648
sg17
g85
sg19
g20
sa(dp5649
g6
g7
(g11
S'H\xe1z\x14\xae\xc77\xc0'
p5650
tp5651
Rp5652
sg17
g90
sg19
g20
sa(dp5653
g6
g7
(g11
S'\x14\xaeG\xe1z\x14\x1e@'
p5654
tp5655
Rp5656
sg17
g95
sg19
g20
sa(dp5657
g6
g7
(g11
S')\\\x8f\xc2\xf5\xe8M\xc0'
p5658
tp5659
Rp5660
sg17
g100
sg19
g20
sa(dp5661
g6
g7
(g11
S'\xf6(\\\x8f\xc253@'
p5662
tp5663
Rp5664
sg17
g105
sg19
g20
sa(dp5665
g6
g7
(g11
S'q=\n\xd7\xa3\xf0)\xc0'
p5666
tp5667
Rp5668
sg17
g110
sg19
g20
sa(dp5669
g6
g7
(g11
S"H\xe1z\x14\xae'H@"
p5670
tp5671
Rp5672
sg17
g115
sg19
g20
sa(dp5673
g6
g7
(g11
S'\xe1z\x14\xaeGAM@'
p5674
tp5675
Rp5676
sg17
g120
sg19
g20
sa(dp5677
g6
g7
(g11
S'\xc3\xf5(\\\x8fB<@'
p5678
tp5679
Rp5680
sg17
g125
sg19
g20
sa(dp5681
g6
g7
(g11
S'{\x14\xaeG\xe1z0\xc0'
p5682
tp5683
Rp5684
sg17
g130
sg19
g20
sa(dp5685
g6
g7
(g11
S'=\n\xd7\xa3p}5@'
p5686
tp5687
Rp5688
sg17
g135
sg19
g20
sa(dp5689
g6
g7
(g11
S'33333\xd3X@'
p5690
tp5691
Rp5692
sg17
g140
sg19
g20
sa(dp5693
g6
g7
(g11
S')\\\x8f\xc2\xf5\xc8K@'
p5694
tp5695
Rp5696
sg17
g145
sg19
g20
sa(dp5697
g6
g7
(g11
S'\xcd\xcc\xcc\xcc\xcc\xccF@'
p5698
tp5699
Rp5700
sg17
g150
sg19
g20
sa(dp5701
g6
g7
(g11
S'\x9a\x99\x99\x99\x99\x99\x07\xc0'
p5702
tp5703
Rp5704
sg17
g155
sg19
g20
sa(dp5705
g6
g7
(g11
S'\xc3\xf5(\\\x8f\x02G\xc0'
p5706
tp5707
Rp5708
sg17
g160
sg19
g20
sasg161
g162
sa(dp5709
g2
I1
sg3
(lp5710
(dp5711
g6
g7
(g11
S'\xe1z\x14\xaeGAI\xc0'
p5712
tp5713
Rp5714
sg17
g18
sg19
g20
sa(dp5715
g6
g7
(g11
S'R\xb8\x1e\x85\xebQK\xc0'
p5716
tp5717
Rp5718
sg17
g25
sg19
g20
sa(dp5719
g6
g7
(g11
S'\xd7\xa3p=\n\xb7V@'
p5720
tp5721
Rp5722
sg17
g30
sg19
g20
sa(dp5723
g6
g7
(g11
S'\xb0G\xe1z\x14\xae.@'
p5724
tp5725
Rp5726
sg17
g35
sg19
g20
sa(dp5727
g6
g7
(g11
S'H\xe1z\x14\xaeGC\xc0'
p5728
tp5729
Rp5730
sg17
g40
sg19
g20
sa(dp5731
g6
g7
(g11
S'\n\xd7\xa3p=\nE@'
p5732
tp5733
Rp5734
sg17
g45
sg19
g20
sa(dp5735
g6
g7
(g11
S'R\xb8\x1e\x85\xeb\xf1Q@'
p5736
tp5737
Rp5738
sg17
g50
sg19
g20
sa(dp5739
g6
g7
(g11
S'\xf6(\\\x8f\xc2ET@'
p5740
tp5741
Rp5742
sg17
g55
sg19
g20
sa(dp5743
g6
g7
(g11
S'R\xb8\x1e\x85\xeb\x91F@'
p5744
tp5745
Rp5746
sg17
g60
sg19
g20
sa(dp5747
g6
g7
(g11
S'\\\x8f\xc2\xf5(LT\xc0'
p5748
tp5749
Rp5750
sg17
g65
sg19
g20
sa(dp5751
g6
g7
(g11
S'q=\n\xd7\xa3p<@'
p5752
tp5753
Rp5754
sg17
g70
sg19
g20
sa(dp5755
g6
g7
(g11
S'\x00\x00\x00\x00\x00\x00<@'
p5756
tp5757
Rp5758
sg17
g75
sg19
g20
sa(dp5759
g6
g7
(g11
S'=\n\xd7\xa3p=)@'
p5760
tp5761
Rp5762
sg17
g80
sg19
g20
sa(dp5763
g6
g7
(g11
S'33333\xd3M\xc0'
p5764
tp5765
Rp5766
sg17
g85
sg19
g20
sa(dp5767
g6
g7
(g11
S'\x85\xebQ\xb8\x1e\x857\xc0'
p5768
tp5769
Rp5770
sg17
g90
sg19
g20
sa(dp5771
g6
g7
(g11
S'\x1f\x85\xebQ\xb8\x1e\x1f@'
p5772
tp5773
Rp5774
sg17
g95
sg19
g20
sa(dp5775
g6
g7
(g11
S'q=\n\xd7\xa3\xb0M\xc0'
p5776
tp5777
Rp5778
sg17
g100
sg19
g20
sa(dp5779
g6
g7
(g11
S'fffff\xa63@'
p5780
tp5781
Rp5782
sg17
g105
sg19
g20
sa(dp5783
g6
g7
(g11
S'\xc3\xf5(\\\x8f\xc2)\xc0'
p5784
tp5785
Rp5786
sg17
g110
sg19
g20
sa(dp5787
g6
g7
(g11
S'333333H@'
p5788
tp5789
Rp5790
sg17
g115
sg19
g20
sa(dp5791
g6
g7
(g11
S'fffff\xe6L@'
p5792
tp5793
Rp5794
sg17
g120
sg19
g20
sa(dp5795
g6
g7
(g11
S'\xc3\xf5(\\\x8fB<@'
p5796
tp5797
Rp5798
sg17
g125
sg19
g20
sa(dp5799
g6
g7
(g11
S'\xb8\x1e\x85\xebQ80\xc0'
p5800
tp5801
Rp5802
sg17
g130
sg19
g20
sa(dp5803
g6
g7
(g11
S'3333336@'
p5804
tp5805
Rp5806
sg17
g135
sg19
g20
sa(dp5807
g6
g7
(g11
S'33333\xd3X@'
p5808
tp5809
Rp5810
sg17
g140
sg19
g20
sa(dp5811
g6
g7
(g11
S'fffff\xc6E@'
p5812
tp5813
Rp5814
sg17
g145
sg19
g20
sa(dp5815
g6
g7
(g11
S'\xe1z\x14\xaeG\x81F@'
p5816
tp5817
Rp5818
sg17
g150
sg19
g20
sa(dp5819
g6
g7
(g11
S'\x9a\x99\x99\x99\x99\x99\x07\xc0'
p5820
tp5821
Rp5822
sg17
g155
sg19
g20
sa(dp5823
g6
g7
(g11
S'\x8f\xc2\xf5(\\/G\xc0'
p5824
tp5825
Rp5826
sg17
g160
sg19
g20
sasg161
g162
sa(dp5827
g2
I1
sg3
(lp5828
(dp5829
g6
g7
(g11
S'q=\n\xd7\xa3\xd0H\xc0'
p5830
tp5831
Rp5832
sg17
g18
sg19
g20
sa(dp5833
g6
g7
(g11
S'\xaeG\xe1z\x14\x0eK\xc0'
p5834
tp5835
Rp5836
sg17
g25
sg19
g20
sa(dp5837
g6
g7
(g11
S'H\xe1z\x14\xae\xc7V@'
p5838
tp5839
Rp5840
sg17
g30
sg19
g20
sa(dp5841
g6
g7
(g11
S'\x00\x00\x00\x00\x00\x80-@'
p5842
tp5843
Rp5844
sg17
g35
sg19
g20
sa(dp5845
g6
g7
(g11
S'33333\x93C\xc0'
p5846
tp5847
Rp5848
sg17
g40
sg19
g20
sa(dp5849
g6
g7
(g11
S'\n\xd7\xa3p=\nE@'
p5850
tp5851
Rp5852
sg17
g45
sg19
g20
sa(dp5853
g6
g7
(g11
S'\x14\xaeG\xe1z\xf4R@'
p5854
tp5855
Rp5856
sg17
g50
sg19
g20
sa(dp5857
g6
g7
(g11
S'\xf6(\\\x8f\xc2ET@'
p5858
tp5859
Rp5860
sg17
g55
sg19
g20
sa(dp5861
g6
g7
(g11
S'R\xb8\x1e\x85\xeb\x91F@'
p5862
tp5863
Rp5864
sg17
g60
sg19
g20
sa(dp5865
g6
g7
(g11
S'\xf6(\\\x8f\xc2\xf5\x08\xc0'
p5866
tp5867
Rp5868
sg17
g65
sg19
g20
sa(dp5869
g6
g7
(g11
S'\x00\x00\x00\x00\x00\x00J@'
p5870
tp5871
Rp5872
sg17
g70
sg19
g20
sa(dp5873
g6
g7
(g11
S'\x9a\x99\x99\x99\x99Y<@'
p5874
tp5875
Rp5876
sg17
g75
sg19
g20
sa(dp5877
g6
g7
(g11
S'\x8f\xc2\xf5(\\\x0f)@'
p5878
tp5879
Rp5880
sg17
g80
sg19
g20
sa(dp5881
g6
g7
(g11
S'\x9a\x99\x99\x99\x99yA\xc0'
p5882
tp5883
Rp5884
sg17
g85
sg19
g20
sa(dp5885
g6
g7
(g11
S')\\\x8f\xc2\xf5(7\xc0'
p5886
tp5887
Rp5888
sg17
g90
sg19
g20
sa(dp5889
g6
g7
(g11
S'\xd7\xa3p=\n\xd7\x1f@'
p5890
tp5891
Rp5892
sg17
g95
sg19
g20
sa(dp5893
g6
g7
(g11
S'\x9a\x99\x99\x99\x99yM\xc0'
p5894
tp5895
Rp5896
sg17
g100
sg19
g20
sa(dp5897
g6
g7
(g11
S'\x00\x00\x00\x00\x00\x004@'
p5898
tp5899
Rp5900
sg17
g105
sg19
g20
sa(dp5901
g6
g7
(g11
S'=\n\xd7\xa3p=)\xc0'
p5902
tp5903
Rp5904
sg17
g110
sg19
g20
sa(dp5905
g6
g7
(g11
S'q=\n\xd7\xa3\x10H@'
p5906
tp5907
Rp5908
sg17
g115
sg19
g20
sa(dp5909
g6
g7
(g11
S'=\n\xd7\xa3p=L@'
p5910
tp5911
Rp5912
sg17
g120
sg19
g20
sa(dp5913
g6
g7
(g11
S'\xc3\xf5(\\\x8fB<@'
p5914
tp5915
Rp5916
sg17
g125
sg19
g20
sa(dp5917
g6
g7
(g11
S'R\xb8\x1e\x85\xeb\x910\xc0'
p5918
tp5919
Rp5920
sg17
g130
sg19
g20
sa(dp5921
g6
g7
(g11
S'\xf6(\\\x8f\xc2u6@'
p5922
tp5923
Rp5924
sg17
g135
sg19
g20
sa(dp5925
g6
g7
(g11
S'\xaeG\xe1z\x14\xdeX@'
p5926
tp5927
Rp5928
sg17
g140
sg19
g20
sa(dp5929
g6
g7
(g11
S'\x00\x00\x00\x00\x00\xc0D@'
p5930
tp5931
Rp5932
sg17
g145
sg19
g20
sa(dp5933
g6
g7
(g11
S'ffffffM@'
p5934
tp5935
Rp5936
sg17
g150
sg19
g20
sa(dp5937
g6
g7
(g11
S'\n\xd7\xa3p=\n\x0b\xc0'
p5938
tp5939
Rp5940
sg17
g155
sg19
g20
sa(dp5941
g6
g7
(g11
S'\x00\x00\x00\x00\x00\xa0G\xc0'
p5942
tp5943
Rp5944
sg17
g160
sg19
g20
sasg161
g162
sa(dp5945
g2
I1
sg3
(lp5946
(dp5947
g6
g7
(g11
S'\xf6(\\\x8f\xc2uH\xc0'
p5948
tp5949
Rp5950
sg17
g18
sg19
g20
sa(dp5951
g6
g7
(g11
S'\n\xd7\xa3p=\xcaJ\xc0'
p5952
tp5953
Rp5954
sg17
g25
sg19
g20
sa(dp5955
g6
g7
(g11
S'33333\xd3V@'
p5956
tp5957
Rp5958
sg17
g30
sg19
g20
sa(dp5959
g6
g7
(g11
S'\xecQ\xb8\x1e\x85\xeb,@'
p5960
tp5961
Rp5962
sg17
g35
sg19
g20
sa(dp5963
g6
g7
(g11
S'\x1f\x85\xebQ\xb8\xdeC\xc0'
p5964
tp5965
Rp5966
sg17
g40
sg19
g20
sa(dp5967
g6
g7
(g11
S'\n\xd7\xa3p=\nE@'
p5968
tp5969
Rp5970
sg17
g45
sg19
g20
sa(dp5971
g6
g7
(g11
S'\xaeG\xe1z\x14>U@'
p5972
tp5973
Rp5974
sg17
g50
sg19
g20
sa(dp5975
g6
g7
(g11
S'\xf6(\\\x8f\xc2ET@'
p5976
tp5977
Rp5978
sg17
g55
sg19
g20
sa(dp5979
g6
g7
(g11
S'R\xb8\x1e\x85\xeb\x91F@'
p5980
tp5981
Rp5982
sg17
g60
sg19
g20
sa(dp5983
g6
g7
(g11
S')\\\x8f\xc2\xf5(\x06\xc0'
p5984
tp5985
Rp5986
sg17
g65
sg19
g20
sa(dp5987
g6
g7
(g11
S'\xaeG\xe1z\x14\xaeH@'
p5988
tp5989
Rp5990
sg17
g70
sg19
g20
sa(dp5991
g6
g7
(g11
S'q=\n\xd7\xa3p<@'
p5992
tp5993
Rp5994
sg17
g75
sg19
g20
sa(dp5995
g6
g7
(g11
S'\x8f\xc2\xf5(\\\x0f)@'
p5996
tp5997
Rp5998
sg17
g80
sg19
g20
sa(dp5999
g6
g7
(g11
S'\x00\x00\x00\x00\x00\xa0K\xc0'
p6000
tp6001
Rp6002
sg17
g85
sg19
g20
sa(dp6003
g6
g7
(g11
S'\x8f\xc2\xf5(\\\xcf6\xc0'
p6004
tp6005
Rp6006
sg17
g90
sg19
g20
sa(dp6007
g6
g7
(g11
S'\x14\xaeG\xe1z\x14 @'
p6008
tp6009
Rp6010
sg17
g95
sg19
g20
sa(dp6011
g6
g7
(g11
S'\xecQ\xb8\x1e\x85KM\xc0'
p6012
tp6013
Rp6014
sg17
g100
sg19
g20
sa(dp6015
g6
g7
(g11
S'\xaeG\xe1z\x14.4@'
p6016
tp6017
Rp6018
sg17
g105
sg19
g20
sa(dp6019
g6
g7
(g11
S'\x14\xaeG\xe1z\x94)\xc0'
p6020
tp6021
Rp6022
sg17
g110
sg19
g20
sa(dp6023
g6
g7
(g11
S'\xa4p=\n\xd7\xe3G@'
p6024
tp6025
Rp6026
sg17
g115
sg19
g20
sa(dp6027
g6
g7
(g11
S'\x14\xaeG\xe1z\x94K@'
p6028
tp6029
Rp6030
sg17
g120
sg19
g20
sa(dp6031
g6
g7
(g11
S'\xc3\xf5(\\\x8fB<@'
p6032
tp6033
Rp6034
sg17
g125
sg19
g20
sa(dp6035
g6
g7
(g11
S'\xd7\xa3p=\n\xd70\xc0'
p6036
tp6037
Rp6038
sg17
g130
sg19
g20
sa(dp6039
g6
g7
(g11
S'\xa4p=\n\xd7\xa36@'
p6040
tp6041
Rp6042
sg17
g135
sg19
g20
sa(dp6043
g6
g7
(g11
S'\x8f\xc2\xf5(\\\xefX@'
p6044
tp6045
Rp6046
sg17
g140
sg19
g20
sa(dp6047
g6
g7
(g11
S'\x00\x00\x00\x00\x00\xc0D@'
p6048
tp6049
Rp6050
sg17
g145
sg19
g20
sa(dp6051
g6
g7
(g11
S'\x00\x00\x00\x00\x00@M@'
p6052
tp6053
Rp6054
sg17
g150
sg19
g20
sa(dp6055
g6
g7
(g11
S'\n\xd7\xa3p=\n\x0b\xc0'
p6056
tp6057
Rp6058
sg17
g155
sg19
g20
sa(dp6059
g6
g7
(g11
S'\x8f\xc2\xf5(\\\xefG\xc0'
p6060
tp6061
Rp6062
sg17
g160
sg19
g20
sasg161
g162
sa(dp6063
g2
I1
sg3
(lp6064
(dp6065
g6
g7
(g11
S'\\\x8f\xc2\xf5(\x1cH\xc0'
p6066
tp6067
Rp6068
sg17
g18
sg19
g20
sa(dp6069
g6
g7
(g11
S'\xc3\xf5(\\\x8f\x029\xc0'
p6070
tp6071
Rp6072
sg17
g25
sg19
g20
sa(dp6073
g6
g7
(g11
S'\xc3\xf5(\\\x8f2]@'
p6074
tp6075
Rp6076
sg17
g30
sg19
g20
sa(dp6077
g6
g7
(g11
S'\xecQ\xb8\x1e\x85\xeb,@'
p6078
tp6079
Rp6080
sg17
g35
sg19
g20
sa(dp6081
g6
g7
(g11
S')\\\x8f\xc2\xf5(D\xc0'
p6082
tp6083
Rp6084
sg17
g40
sg19
g20
sa(dp6085
g6
g7
(g11
S'\n\xd7\xa3p=\nE@'
p6086
tp6087
Rp6088
sg17
g45
sg19
g20
sa(dp6089
g6
g7
(g11
S'q=\n\xd7\xa3pU@'
p6090
tp6091
Rp6092
sg17
g50
sg19
g20
sa(dp6093
g6
g7
(g11
S'\xf6(\\\x8f\xc2ET@'
p6094
tp6095
Rp6096
sg17
g55
sg19
g20
sa(dp6097
g6
g7
(g11
S'\xa4p=\n\xd7\xa3*@'
p6098
tp6099
Rp6100
sg17
g60
sg19
g20
sa(dp6101
g6
g7
(g11
S'\xc3\xf5(\\\x8f\xc2\x11\xc0'
p6102
tp6103
Rp6104
sg17
g65
sg19
g20
sa(dp6105
g6
g7
(g11
S'\xaeG\xe1z\x14nI@'
p6106
tp6107
Rp6108
sg17
g70
sg19
g20
sa(dp6109
g6
g7
(g11
S'333333"\xc0'
p6110
tp6111
Rp6112
sg17
g75
sg19
g20
sa(dp6113
g6
g7
(g11
S'\x9a\x99\x99\x99\x99\x191\xc0'
p6114
tp6115
Rp6116
sg17
g80
sg19
g20
sa(dp6117
g6
g7
(g11
S'333333L\xc0'
p6118
tp6119
Rp6120
sg17
g85
sg19
g20
sa(dp6121
g6
g7
(g11
S'\xcd\xcc\xcc\xcc\xcc\x8c6\xc0'
p6122
tp6123
Rp6124
sg17
g90
sg19
g20
sa(dp6125
g6
g7
(g11
S'\n\xd7\xa3p=\n,@'
p6126
tp6127
Rp6128
sg17
g95
sg19
g20
sa(dp6129
g6
g7
(g11
S'R\xb8\x1e\x85\xebQC\xc0'
p6130
tp6131
Rp6132
sg17
g100
sg19
g20
sa(dp6133
g6
g7
(g11
S'\xaeG\xe1z\x14.(@'
p6134
tp6135
Rp6136
sg17
g105
sg19
g20
sa(dp6137
g6
g7
(g11
S'H\xe1z\x14\xaeG*\xc0'
p6138
tp6139
Rp6140
sg17
g110
sg19
g20
sa(dp6141
g6
g7
(g11
S'\n\xd7\xa3p=\x8aG@'
p6142
tp6143
Rp6144
sg17
g115
sg19
g20
sa(dp6145
g6
g7
(g11
S'=\n\xd7\xa3p=L@'
p6146
tp6147
Rp6148
sg17
g120
sg19
g20
sa(dp6149
g6
g7
(g11
S'\xc3\xf5(\\\x8fB<@'
p6150
tp6151
Rp6152
sg17
g125
sg19
g20
sa(dp6153
g6
g7
(g11
S'\xecQ\xb8\x1e\x85\xeb0\xc0'
p6154
tp6155
Rp6156
sg17
g130
sg19
g20
sa(dp6157
g6
g7
(g11
S'\x1f\x85\xebQ\xb8\x9e4@'
p6158
tp6159
Rp6160
sg17
g135
sg19
g20
sa(dp6161
g6
g7
(g11
S'\xf6(\\\x8f\xc2\xa5X@'
p6162
tp6163
Rp6164
sg17
g140
sg19
g20
sa(dp6165
g6
g7
(g11
S'{\x14\xaeG\xe1zE@'
p6166
tp6167
Rp6168
sg17
g145
sg19
g20
sa(dp6169
g6
g7
(g11
S'\x00\x00\x00\x00\x00\x00I@'
p6170
tp6171
Rp6172
sg17
g150
sg19
g20
sa(dp6173
g6
g7
(g11
S'ffffff\n\xc0'
p6174
tp6175
Rp6176
sg17
g155
sg19
g20
sa(dp6177
g6
g7
(g11
S'\x9a\x99\x99\x99\x99\xb9H\xc0'
p6178
tp6179
Rp6180
sg17
g160
sg19
g20
sasg161
g162
sa(dp6181
g2
I1
sg3
(lp6182
(dp6183
g6
g7
(g11
S'\x8f\xc2\xf5(\\\xefG\xc0'
p6184
tp6185
Rp6186
sg17
g18
sg19
g20
sa(dp6187
g6
g7
(g11
S'\xf6(\\\x8f\xc2u6\xc0'
p6188
tp6189
Rp6190
sg17
g25
sg19
g20
sa(dp6191
g6
g7
(g11
S'\xb8\x1e\x85\xebQ\x08\\@'
p6192
tp6193
Rp6194
sg17
g30
sg19
g20
sa(dp6195
g6
g7
(g11
S'P\xb8\x1e\x85\xebQ,@'
p6196
tp6197
Rp6198
sg17
g35
sg19
g20
sa(dp6199
g6
g7
(g11
S')\\\x8f\xc2\xf5(D\xc0'
p6200
tp6201
Rp6202
sg17
g40
sg19
g20
sa(dp6203
g6
g7
(g11
S'\n\xd7\xa3p=\nE@'
p6204
tp6205
Rp6206
sg17
g45
sg19
g20
sa(dp6207
g6
g7
(g11
S'33333\xa3U@'
p6208
tp6209
Rp6210
sg17
g50
sg19
g20
sa(dp6211
g6
g7
(g11
S'\xf6(\\\x8f\xc2ET@'
p6212
tp6213
Rp6214
sg17
g55
sg19
g20
sa(dp6215
g6
g7
(g11
S'\\\x8f\xc2\xf5(\\1@'
p6216
tp6217
Rp6218
sg17
g60
sg19
g20
sa(dp6219
g6
g7
(g11
S'R\xb8\x1e\x85\xebQ\x1c\xc0'
p6220
tp6221
Rp6222
sg17
g65
sg19
g20
sa(dp6223
g6
g7
(g11
S')\\\x8f\xc2\xf5\xa8J@'
p6224
tp6225
Rp6226
sg17
g70
sg19
g20
sa(dp6227
g6
g7
(g11
S'\xb8\x1e\x85\xebQ\xb8"\xc0'
p6228
tp6229
Rp6230
sg17
g75
sg19
g20
sa(dp6231
g6
g7
(g11
S'\xf6(\\\x8f\xc2u*\xc0'
p6232
tp6233
Rp6234
sg17
g80
sg19
g20
sa(dp6235
g6
g7
(g11
S'\xc3\xf5(\\\x8f\xa2L\xc0'
p6236
tp6237
Rp6238
sg17
g85
sg19
g20
sa(dp6239
g6
g7
(g11
S'\n\xd7\xa3p=J6\xc0'
p6240
tp6241
Rp6242
sg17
g90
sg19
g20
sa(dp6243
g6
g7
(g11
S'\x14\xaeG\xe1z\x14\xfa\xbf'
p6244
tp6245
Rp6246
sg17
g95
sg19
g20
sa(dp6247
g6
g7
(g11
S'\xe1z\x14\xaeG\x81@\xc0'
p6248
tp6249
Rp6250
sg17
g100
sg19
g20
sa(dp6251
g6
g7
(g11
S'\xb8\x1e\x85\xebQ8,\xc0'
p6252
tp6253
Rp6254
sg17
g105
sg19
g20
sa(dp6255
g6
g7
(g11
S'R\xb8\x1e\x85\xeb\xd1*\xc0'
p6256
tp6257
Rp6258
sg17
g110
sg19
g20
sa(dp6259
g6
g7
(g11
S'{\x14\xaeG\xe1:G@'
p6260
tp6261
Rp6262
sg17
g115
sg19
g20
sa(dp6263
g6
g7
(g11
S'\x00\x00\x00\x00\x00`L@'
p6264
tp6265
Rp6266
sg17
g120
sg19
g20
sa(dp6267
g6
g7
(g11
S'=\n\xd7\xa3p\xfd>@'
p6268
tp6269
Rp6270
sg17
g125
sg19
g20
sa(dp6271
g6
g7
(g11
S'\\\x8f\xc2\xf5(\\1\xc0'
p6272
tp6273
Rp6274
sg17
g130
sg19
g20
sa(dp6275
g6
g7
(g11
S'\n\xd7\xa3p=\x8a1@'
p6276
tp6277
Rp6278
sg17
g135
sg19
g20
sa(dp6279
g6
g7
(g11
S'\x00\x00\x00\x00\x00\x00Y@'
p6280
tp6281
Rp6282
sg17
g140
sg19
g20
sa(dp6283
g6
g7
(g11
S'\\\x8f\xc2\xf5(\\F@'
p6284
tp6285
Rp6286
sg17
g145
sg19
g20
sa(dp6287
g6
g7
(g11
S'q=\n\xd7\xa3pI@'
p6288
tp6289
Rp6290
sg17
g150
sg19
g20
sa(dp6291
g6
g7
(g11
S'\n\xd7\xa3p=\n\x0b\xc0'
p6292
tp6293
Rp6294
sg17
g155
sg19
g20
sa(dp6295
g6
g7
(g11
S'\\\x8f\xc2\xf5(\xbcI\xc0'
p6296
tp6297
Rp6298
sg17
g160
sg19
g20
sasg161
g162
sa(dp6299
g2
I1
sg3
(lp6300
(dp6301
g6
g7
(g11
S'fffff\xa6M\xc0'
p6302
tp6303
Rp6304
sg17
g18
sg19
g20
sa(dp6305
g6
g7
(g11
S'\xcd\xcc\xcc\xcc\xcc\xecJ\xc0'
p6306
tp6307
Rp6308
sg17
g25
sg19
g20
sa(dp6309
g6
g7
(g11
S'\xe1z\x14\xaeG\xb1Z@'
p6310
tp6311
Rp6312
sg17
g30
sg19
g20
sa(dp6313
g6
g7
(g11
S'<\n\xd7\xa3p\xbd+@'
p6314
tp6315
Rp6316
sg17
g35
sg19
g20
sa(dp6317
g6
g7
(g11
S'\x14\xaeG\xe1ztD\xc0'
p6318
tp6319
Rp6320
sg17
g40
sg19
g20
sa(dp6321
g6
g7
(g11
S'\n\xd7\xa3p=\nE@'
p6322
tp6323
Rp6324
sg17
g45
sg19
g20
sa(dp6325
g6
g7
(g11
S'\xe1z\x14\xaeG\xb1V@'
p6326
tp6327
Rp6328
sg17
g50
sg19
g20
sa(dp6329
g6
g7
(g11
S'\xf6(\\\x8f\xc2ET@'
p6330
tp6331
Rp6332
sg17
g55
sg19
g20
sa(dp6333
g6
g7
(g11
S'=\n\xd7\xa3p=@@'
p6334
tp6335
Rp6336
sg17
g60
sg19
g20
sa(dp6337
g6
g7
(g11
S'\xd7\xa3p=\n\xd7!\xc0'
p6338
tp6339
Rp6340
sg17
g65
sg19
g20
sa(dp6341
g6
g7
(g11
S'\xe1z\x14\xaeG!N@'
p6342
tp6343
Rp6344
sg17
g70
sg19
g20
sa(dp6345
g6
g7
(g11
S'ffffff\x11@'
p6346
tp6347
Rp6348
sg17
g75
sg19
g20
sa(dp6349
g6
g7
(g11
S'\x14\xaeG\xe1z\x14\x1e\xc0'
p6350
tp6351
Rp6352
sg17
g80
sg19
g20
sa(dp6353
g6
g7
(g11
S')\\\x8f\xc2\xf5\xa8F\xc0'
p6354
tp6355
Rp6356
sg17
g85
sg19
g20
sa(dp6357
g6
g7
(g11
S'=\n\xd7\xa3p\xfd6\xc0'
p6358
tp6359
Rp6360
sg17
g90
sg19
g20
sa(dp6361
g6
g7
(g11
S'333333\x01@'
p6362
tp6363
Rp6364
sg17
g95
sg19
g20
sa(dp6365
g6
g7
(g11
S'{\x14\xaeG\xe1\x9aI\xc0'
p6366
tp6367
Rp6368
sg17
g100
sg19
g20
sa(dp6369
g6
g7
(g11
S'\xe1z\x14\xaeG\xe1\x13\xc0'
p6370
tp6371
Rp6372
sg17
g105
sg19
g20
sa(dp6373
g6
g7
(g11
S'=\n\xd7\xa3p\xfd6\xc0'
p6374
tp6375
Rp6376
sg17
g110
sg19
g20
sa(dp6377
g6
g7
(g11
S'\xecQ\xb8\x1e\x85\x0bJ@'
p6378
tp6379
Rp6380
sg17
g115
sg19
g20
sa(dp6381
g6
g7
(g11
S"H\xe1z\x14\xae'Q@"
p6382
tp6383
Rp6384
sg17
g120
sg19
g20
sa(dp6385
g6
g7
(g11
S'=\n\xd7\xa3p\xfd>@'
p6386
tp6387
Rp6388
sg17
g125
sg19
g20
sa(dp6389
g6
g7
(g11
S'\xe1z\x14\xaeG\xa19\xc0'
p6390
tp6391
Rp6392
sg17
g130
sg19
g20
sa(dp6393
g6
g7
(g11
S'{\x14\xaeG\xe1z0@'
p6394
tp6395
Rp6396
sg17
g135
sg19
g20
sa(dp6397
g6
g7
(g11
S')\\\x8f\xc2\xf5HY@'
p6398
tp6399
Rp6400
sg17
g140
sg19
g20
sa(dp6401
g6
g7
(g11
S'q=\n\xd7\xa30E@'
p6402
tp6403
Rp6404
sg17
g145
sg19
g20
sa(dp6405
g6
g7
(g11
S'\xecQ\xb8\x1e\x85\x0bQ@'
p6406
tp6407
Rp6408
sg17
g150
sg19
g20
sa(dp6409
g6
g7
(g11
S'=\n\xd7\xa3p=\x1b@'
p6410
tp6411
Rp6412
sg17
g155
sg19
g20
sa(dp6413
g6
g7
(g11
S'R\xb8\x1e\x85\xebQ!\xc0'
p6414
tp6415
Rp6416
sg17
g160
sg19
g20
sasg161
g162
sa(dp6417
g2
I1
sg3
(lp6418
(dp6419
g6
g7
(g11
S'\x14\xaeG\xe1z$R\xc0'
p6420
tp6421
Rp6422
sg17
g18
sg19
g20
sa(dp6423
g6
g7
(g11
S'\x1f\x85\xebQ\xb8NQ\xc0'
p6424
tp6425
Rp6426
sg17
g25
sg19
g20
sa(dp6427
g6
g7
(g11
S'\x1f\x85\xebQ\xb8\xae[@'
p6428
tp6429
Rp6430
sg17
g30
sg19
g20
sa(dp6431
g6
g7
(g11
S'(\\\x8f\xc2\xf5(+@'
p6432
tp6433
Rp6434
sg17
g35
sg19
g20
sa(dp6435
g6
g7
(g11
S'\x14\xaeG\xe1ztD\xc0'
p6436
tp6437
Rp6438
sg17
g40
sg19
g20
sa(dp6439
g6
g7
(g11
S'\xf6(\\\x8f\xc2UE@'
p6440
tp6441
Rp6442
sg17
g45
sg19
g20
sa(dp6443
g6
g7
(g11
S'\xecQ\xb8\x1e\x85\xabV@'
p6444
tp6445
Rp6446
sg17
g50
sg19
g20
sa(dp6447
g6
g7
(g11
S'\xf6(\\\x8f\xc2ET@'
p6448
tp6449
Rp6450
sg17
g55
sg19
g20
sa(dp6451
g6
g7
(g11
S'=\n\xd7\xa3p=@@'
p6452
tp6453
Rp6454
sg17
g60
sg19
g20
sa(dp6455
g6
g7
(g11
S'ffffff)\xc0'
p6456
tp6457
Rp6458
sg17
g65
sg19
g20
sa(dp6459
g6
g7
(g11
S'q=\n\xd7\xa3pN@'
p6460
tp6461
Rp6462
sg17
g70
sg19
g20
sa(dp6463
g6
g7
(g11
S'=\n\xd7\xa3p=\x08@'
p6464
tp6465
Rp6466
sg17
g75
sg19
g20
sa(dp6467
g6
g7
(g11
S'\xb8\x1e\x85\xebQ\xb8\x17\xc0'
p6468
tp6469
Rp6470
sg17
g80
sg19
g20
sa(dp6471
g6
g7
(g11
S'\x85\xebQ\xb8\x1eeF\xc0'
p6472
tp6473
Rp6474
sg17
g85
sg19
g20
sa(dp6475
g6
g7
(g11
S'{\x14\xaeG\xe1z\xa4?'
p6476
tp6477
Rp6478
sg17
g90
sg19
g20
sa(dp6479
g6
g7
(g11
S'\xb8\x1e\x85\xebQ\xb8\x17@'
p6480
tp6481
Rp6482
sg17
g95
sg19
g20
sa(dp6483
g6
g7
(g11
S'\xcd\xcc\xcc\xcc\xcc\xbcP\xc0'
p6484
tp6485
Rp6486
sg17
g100
sg19
g20
sa(dp6487
g6
g7
(g11
S'\xe1z\x14\xaeG\xe1\x13\xc0'
p6488
tp6489
Rp6490
sg17
g105
sg19
g20
sa(dp6491
g6
g7
(g11
S'\x00\x00\x00\x00\x00\xc00\xc0'
p6492
tp6493
Rp6494
sg17
g110
sg19
g20
sa(dp6495
g6
g7
(g11
S'\xecQ\xb8\x1e\x85\x0bJ@'
p6496
tp6497
Rp6498
sg17
g115
sg19
g20
sa(dp6499
g6
g7
(g11
S'\x14\xaeG\xe1zTH@'
p6500
tp6501
Rp6502
sg17
g120
sg19
g20
sa(dp6503
g6
g7
(g11
S'=\n\xd7\xa3p\xfd>@'
p6504
tp6505
Rp6506
sg17
g125
sg19
g20
sa(dp6507
g6
g7
(g11
S'\x9a\x99\x99\x99\x99\x199\xc0'
p6508
tp6509
Rp6510
sg17
g130
sg19
g20
sa(dp6511
g6
g7
(g11
S'\x85\xebQ\xb8\x1e\x05%@'
p6512
tp6513
Rp6514
sg17
g135
sg19
g20
sa(dp6515
g6
g7
(g11
S'\xd7\xa3p=\nWZ@'
p6516
tp6517
Rp6518
sg17
g140
sg19
g20
sa(dp6519
g6
g7
(g11
S'\xb8\x1e\x85\xebQ\xb8\x1c@'
p6520
tp6521
Rp6522
sg17
g145
sg19
g20
sa(dp6523
g6
g7
(g11
S'\x1f\x85\xebQ\xb8\x1eQ@'
p6524
tp6525
Rp6526
sg17
g150
sg19
g20
sa(dp6527
g6
g7
(g11
S'\n\xd7\xa3p=\n/@'
p6528
tp6529
Rp6530
sg17
g155
sg19
g20
sa(dp6531
g6
g7
(g11
S'\x85\xebQ\xb8\x1e\x056@'
p6532
tp6533
Rp6534
sg17
g160
sg19
g20
sasg161
g162
sa(dp6535
g2
I1
sg3
(lp6536
(dp6537
g6
g7
(g11
S'\xc3\xf5(\\\x8fbR\xc0'
p6538
tp6539
Rp6540
sg17
g18
sg19
g20
sa(dp6541
g6
g7
(g11
S'\x8f\xc2\xf5(\\\xbfS\xc0'
p6542
tp6543
Rp6544
sg17
g25
sg19
g20
sa(dp6545
g6
g7
(g11
S'q=\n\xd7\xa3@\\@'
p6546
tp6547
Rp6548
sg17
g30
sg19
g20
sa(dp6549
g6
g7
(g11
S'(\\\x8f\xc2\xf5(+@'
p6550
tp6551
Rp6552
sg17
g35
sg19
g20
sa(dp6553
g6
g7
(g11
S'\x14\xaeG\xe1ztD\xc0'
p6554
tp6555
Rp6556
sg17
g40
sg19
g20
sa(dp6557
g6
g7
(g11
S'R\xb8\x1e\x85\xebAY@'
p6558
tp6559
Rp6560
sg17
g45
sg19
g20
sa(dp6561
g6
g7
(g11
S'\xc3\xf5(\\\x8f\x02X@'
p6562
tp6563
Rp6564
sg17
g50
sg19
g20
sa(dp6565
g6
g7
(g11
S'{\x14\xaeG\xe1jT@'
p6566
tp6567
Rp6568
sg17
g55
sg19
g20
sa(dp6569
g6
g7
(g11
S'=\n\xd7\xa3p=@@'
p6570
tp6571
Rp6572
sg17
g60
sg19
g20
sa(dp6573
g6
g7
(g11
S'33333\xb3<\xc0'
p6574
tp6575
Rp6576
sg17
g65
sg19
g20
sa(dp6577
g6
g7
(g11
S'fffff\xe6D@'
p6578
tp6579
Rp6580
sg17
g70
sg19
g20
sa(dp6581
g6
g7
(g11
S'\n\xd7\xa3p=\n\x11@'
p6582
tp6583
Rp6584
sg17
g75
sg19
g20
sa(dp6585
g6
g7
(g11
S'H\xe1z\x14\xae\xc7#@'
p6586
tp6587
Rp6588
sg17
g80
sg19
g20
sa(dp6589
g6
g7
(g11
S'\\\x8f\xc2\xf5(|F\xc0'
p6590
tp6591
Rp6592
sg17
g85
sg19
g20
sa(dp6593
g6
g7
(g11
S'R\xb8\x1e\x85\xeb\xd1;@'
p6594
tp6595
Rp6596
sg17
g90
sg19
g20
sa(dp6597
g6
g7
(g11
S'\xe1z\x14\xaeG!8@'
p6598
tp6599
Rp6600
sg17
g95
sg19
g20
sa(dp6601
g6
g7
(g11
S'\xaeG\xe1z\x14>S\xc0'
p6602
tp6603
Rp6604
sg17
g100
sg19
g20
sa(dp6605
g6
g7
(g11
S'333333\x14\xc0'
p6606
tp6607
Rp6608
sg17
g105
sg19
g20
sa(dp6609
g6
g7
(g11
S'\x8f\xc2\xf5(\\\x8f\x0e\xc0'
p6610
tp6611
Rp6612
sg17
g110
sg19
g20
sa(dp6613
g6
g7
(g11
S'\xecQ\xb8\x1e\x85\x0bJ@'
p6614
tp6615
Rp6616
sg17
g115
sg19
g20
sa(dp6617
g6
g7
(g11
S'fffff\x86B@'
p6618
tp6619
Rp6620
sg17
g120
sg19
g20
sa(dp6621
g6
g7
(g11
S'=\n\xd7\xa3p\xfd>@'
p6622
tp6623
Rp6624
sg17
g125
sg19
g20
sa(dp6625
g6
g7
(g11
S'R\xb8\x1e\x85\xebQ\x1c\xc0'
p6626
tp6627
Rp6628
sg17
g130
sg19
g20
sa(dp6629
g6
g7
(g11
S'\x14\xaeG\xe1z\x14 @'
p6630
tp6631
Rp6632
sg17
g135
sg19
g20
sa(dp6633
g6
g7
(g11
S'\x85\xebQ\xb8\x1e\xc5[@'
p6634
tp6635
Rp6636
sg17
g140
sg19
g20
sa(dp6637
g6
g7
(g11
S'\xf6(\\\x8f\xc2\xf5\n@'
p6638
tp6639
Rp6640
sg17
g145
sg19
g20
sa(dp6641
g6
g7
(g11
S'\x1f\x85\xebQ\xb8\x1eQ@'
p6642
tp6643
Rp6644
sg17
g150
sg19
g20
sa(dp6645
g6
g7
(g11
S'\xaeG\xe1z\x14\xae\x16\xc0'
p6646
tp6647
Rp6648
sg17
g155
sg19
g20
sa(dp6649
g6
g7
(g11
S'33333\xd3M@'
p6650
tp6651
Rp6652
sg17
g160
sg19
g20
sasg161
g162
sa(dp6653
g2
I1
sg3
(lp6654
(dp6655
g6
g7
(g11
S'\xe1z\x14\xaeG\x81Q\xc0'
p6656
tp6657
Rp6658
sg17
g18
sg19
g20
sa(dp6659
g6
g7
(g11
S'33333\xa3S\xc0'
p6660
tp6661
Rp6662
sg17
g25
sg19
g20
sa(dp6663
g6
g7
(g11
S'{\x14\xaeG\xe1:\\@'
p6664
tp6665
Rp6666
sg17
g30
sg19
g20
sa(dp6667
g6
g7
(g11
S'(\\\x8f\xc2\xf5(+@'
p6668
tp6669
Rp6670
sg17
g35
sg19
g20
sa(dp6671
g6
g7
(g11
S'\x14\xaeG\xe1ztD\xc0'
p6672
tp6673
Rp6674
sg17
g40
sg19
g20
sa(dp6675
g6
g7
(g11
S'H\xe1z\x14\xae\xd7Y@'
p6676
tp6677
Rp6678
sg17
g45
sg19
g20
sa(dp6679
g6
g7
(g11
S'q=\n\xd7\xa3\xa0P@'
p6680
tp6681
Rp6682
sg17
g50
sg19
g20
sa(dp6683
g6
g7
(g11
S'\xb8\x1e\x85\xebQXT@'
p6684
tp6685
Rp6686
sg17
g55
sg19
g20
sa(dp6687
g6
g7
(g11
S'=\n\xd7\xa3p=@@'
p6688
tp6689
Rp6690
sg17
g60
sg19
g20
sa(dp6691
g6
g7
(g11
S'\xcd\xcc\xcc\xcc\xcc\xcc1\xc0'
p6692
tp6693
Rp6694
sg17
g65
sg19
g20
sa(dp6695
g6
g7
(g11
S'\x1f\x85\xebQ\xb8\xde7@'
p6696
tp6697
Rp6698
sg17
g70
sg19
g20
sa(dp6699
g6
g7
(g11
S'\x00\x00\x00\x00\x00\x00\x10@'
p6700
tp6701
Rp6702
sg17
g75
sg19
g20
sa(dp6703
g6
g7
(g11
S'\xd7\xa3p=\n\xd7\x1f@'
p6704
tp6705
Rp6706
sg17
g80
sg19
g20
sa(dp6707
g6
g7
(g11
S'\x00\x00\x00\x00\x00`D\xc0'
p6708
tp6709
Rp6710
sg17
g85
sg19
g20
sa(dp6711
g6
g7
(g11
S'\xaeG\xe1z\x14.%@'
p6712
tp6713
Rp6714
sg17
g90
sg19
g20
sa(dp6715
g6
g7
(g11
S'{\x14\xaeG\xe1:5@'
p6716
tp6717
Rp6718
sg17
g95
sg19
g20
sa(dp6719
g6
g7
(g11
S'R\xb8\x1e\x85\xeb!S\xc0'
p6720
tp6721
Rp6722
sg17
g100
sg19
g20
sa(dp6723
g6
g7
(g11
S'\x8f\xc2\xf5(\\\x8f\x14\xc0'
p6724
tp6725
Rp6726
sg17
g105
sg19
g20
sa(dp6727
g6
g7
(g11
S')\\\x8f\xc2\xf5(\x13@'
p6728
tp6729
Rp6730
sg17
g110
sg19
g20
sa(dp6731
g6
g7
(g11
S'\xecQ\xb8\x1e\x85\x0bJ@'
p6732
tp6733
Rp6734
sg17
g115
sg19
g20
sa(dp6735
g6
g7
(g11
S'\xb8\x1e\x85\xebQ\xb8%@'
p6736
tp6737
Rp6738
sg17
g120
sg19
g20
sa(dp6739
g6
g7
(g11
S'=\n\xd7\xa3p\xfd>@'
p6740
tp6741
Rp6742
sg17
g125
sg19
g20
sa(dp6743
g6
g7
(g11
S'\x00\x00\x00\x00\x00\xc00@'
p6744
tp6745
Rp6746
sg17
g130
sg19
g20
sa(dp6747
g6
g7
(g11
S'R\xb8\x1e\x85\xeb\xd1*\xc0'
p6748
tp6749
Rp6750
sg17
g135
sg19
g20
sa(dp6751
g6
g7
(g11
S'fffffv[@'
p6752
tp6753
Rp6754
sg17
g140
sg19
g20
sa(dp6755
g6
g7
(g11
S'\\\x8f\xc2\xf5(\\\x13\xc0'
p6756
tp6757
Rp6758
sg17
g145
sg19
g20
sa(dp6759
g6
g7
(g11
S'fffffVQ@'
p6760
tp6761
Rp6762
sg17
g150
sg19
g20
sa(dp6763
g6
g7
(g11
S'\xf6(\\\x8f\xc2\xf5\x15@'
p6764
tp6765
Rp6766
sg17
g155
sg19
g20
sa(dp6767
g6
g7
(g11
S'\x8f\xc2\xf5(\\\x8fM@'
p6768
tp6769
Rp6770
sg17
g160
sg19
g20
sasg161
g162
sa(dp6771
g2
I1
sg3
(lp6772
(dp6773
g6
g7
(g11
S'33333\xb3(\xc0'
p6774
tp6775
Rp6776
sg17
g18
sg19
g20
sa(dp6777
g6
g7
(g11
S'\x14\xaeG\xe1zTW\xc0'
p6778
tp6779
Rp6780
sg17
g25
sg19
g20
sa(dp6781
g6
g7
(g11
S'H\xe1z\x14\xae\x97]@'
p6782
tp6783
Rp6784
sg17
g30
sg19
g20
sa(dp6785
g6
g7
(g11
S'(\\\x8f\xc2\xf5(+@'
p6786
tp6787
Rp6788
sg17
g35
sg19
g20
sa(dp6789
g6
g7
(g11
S'\x9a\x99\x99\x99\x99\x99D\xc0'
p6790
tp6791
Rp6792
sg17
g40
sg19
g20
sa(dp6793
g6
g7
(g11
S')\\\x8f\xc2\xf5\xb8Z@'
p6794
tp6795
Rp6796
sg17
g45
sg19
g20
sa(dp6797
g6
g7
(g11
S'\x8f\xc2\xf5(\\\x8f\x0e@'
p6798
tp6799
Rp6800
sg17
g50
sg19
g20
sa(dp6801
g6
g7
(g11
S'\xa4p=\n\xd7\xf3R@'
p6802
tp6803
Rp6804
sg17
g55
sg19
g20
sa(dp6805
g6
g7
(g11
S'\xcd\xcc\xcc\xcc\xcc\x0c=@'
p6806
tp6807
Rp6808
sg17
g60
sg19
g20
sa(dp6809
g6
g7
(g11
S'333333\x1a@'
p6810
tp6811
Rp6812
sg17
g65
sg19
g20
sa(dp6813
g6
g7
(g11
S'fffff\xe6"@'
p6814
tp6815
Rp6816
sg17
g70
sg19
g20
sa(dp6817
g6
g7
(g11
S'\n\xd7\xa3p=\n\x11@'
p6818
tp6819
Rp6820
sg17
g75
sg19
g20
sa(dp6821
g6
g7
(g11
S'\xaeG\xe1z\x14.%@'
p6822
tp6823
Rp6824
sg17
g80
sg19
g20
sa(dp6825
g6
g7
(g11
S')\\\x8f\xc2\xf5(\x06@'
p6826
tp6827
Rp6828
sg17
g85
sg19
g20
sa(dp6829
g6
g7
(g11
S'\xaeG\xe1z\x14.(@'
p6830
tp6831
Rp6832
sg17
g90
sg19
g20
sa(dp6833
g6
g7
(g11
S'\xcd\xcc\xcc\xcc\xcc\xcc9@'
p6834
tp6835
Rp6836
sg17
g95
sg19
g20
sa(dp6837
g6
g7
(g11
S'\n\xd7\xa3p=*V\xc0'
p6838
tp6839
Rp6840
sg17
g100
sg19
g20
sa(dp6841
g6
g7
(g11
S'\xecQ\xb8\x1e\x85\xeb\x14\xc0'
p6842
tp6843
Rp6844
sg17
g105
sg19
g20
sa(dp6845
g6
g7
(g11
S'\x1f\x85\xebQ\xb8\x1e\x12@'
p6846
tp6847
Rp6848
sg17
g110
sg19
g20
sa(dp6849
g6
g7
(g11
S'\xe1z\x14\xaeG!J@'
p6850
tp6851
Rp6852
sg17
g115
sg19
g20
sa(dp6853
g6
g7
(g11
S'\xaeG\xe1z\x14\xae\xff?'
p6854
tp6855
Rp6856
sg17
g120
sg19
g20
sa(dp6857
g6
g7
(g11
S'=\n\xd7\xa3p\xfd>@'
p6858
tp6859
Rp6860
sg17
g125
sg19
g20
sa(dp6861
g6
g7
(g11
S'\xa4p=\n\xd7\xa3*@'
p6862
tp6863
Rp6864
sg17
g130
sg19
g20
sa(dp6865
g6
g7
(g11
S'\xaeG\xe1z\x14.(\xc0'
p6866
tp6867
Rp6868
sg17
g135
sg19
g20
sa(dp6869
g6
g7
(g11
S'\x85\xebQ\xb8\x1e\xc5[@'
p6870
tp6871
Rp6872
sg17
g140
sg19
g20
sa(dp6873
g6
g7
(g11
S'\xe1z\x14\xaeG\x01U@'
p6874
tp6875
Rp6876
sg17
g145
sg19
g20
sa(dp6877
g6
g7
(g11
S'fffffVQ@'
p6878
tp6879
Rp6880
sg17
g150
sg19
g20
sa(dp6881
g6
g7
(g11
S')\\\x8f\xc2\xf5\xa8$@'
p6882
tp6883
Rp6884
sg17
g155
sg19
g20
sa(dp6885
g6
g7
(g11
S'33333\xf3:@'
p6886
tp6887
Rp6888
sg17
g160
sg19
g20
sasg161
g162
sa(dp6889
g2
I1
sg3
(lp6890
(dp6891
g6
g7
(g11
S'R\xb8\x1e\x85\xebQ\xf4?'
p6892
tp6893
Rp6894
sg17
g18
sg19
g20
sa(dp6895
g6
g7
(g11
S'\n\xd7\xa3p=ZW\xc0'
p6896
tp6897
Rp6898
sg17
g25
sg19
g20
sa(dp6899
g6
g7
(g11
S'\x00\x00\x00\x00\x00\xd0]@'
p6900
tp6901
Rp6902
sg17
g30
sg19
g20
sa(dp6903
g6
g7
(g11
S'(\\\x8f\xc2\xf5(+@'
p6904
tp6905
Rp6906
sg17
g35
sg19
g20
sa(dp6907
g6
g7
(g11
S'\x00\x00\x00\x00\x00\xc0D\xc0'
p6908
tp6909
Rp6910
sg17
g40
sg19
g20
sa(dp6911
g6
g7
(g11
S'\x1f\x85\xebQ\xb8\xdeZ@'
p6912
tp6913
Rp6914
sg17
g45
sg19
g20
sa(dp6915
g6
g7
(g11
S'\x14\xaeG\xe1z\x14\x18\xc0'
p6916
tp6917
Rp6918
sg17
g50
sg19
g20
sa(dp6919
g6
g7
(g11
S'\xa4p=\n\xd7\xf3R@'
p6920
tp6921
Rp6922
sg17
g55
sg19
g20
sa(dp6923
g6
g7
(g11
S'{\x14\xaeG\xe1:=@'
p6924
tp6925
Rp6926
sg17
g60
sg19
g20
sa(dp6927
g6
g7
(g11
S'\xb8\x1e\x85\xebQ\xb8\x17@'
p6928
tp6929
Rp6930
sg17
g65
sg19
g20
sa(dp6931
g6
g7
(g11
S'H\xe1z\x14\xaeG-\xc0'
p6932
tp6933
Rp6934
sg17
g70
sg19
g20
sa(dp6935
g6
g7
(g11
S'\n\xd7\xa3p=\n\x11@'
p6936
tp6937
Rp6938
sg17
g75
sg19
g20
sa(dp6939
g6
g7
(g11
S"R\xb8\x1e\x85\xeb\xd1'@"
p6940
tp6941
Rp6942
sg17
g80
sg19
g20
sa(dp6943
g6
g7
(g11
S'q=\n\xd7\xa3p\x05@'
p6944
tp6945
Rp6946
sg17
g85
sg19
g20
sa(dp6947
g6
g7
(g11
S')\\\x8f\xc2\xf5(\x06@'
p6948
tp6949
Rp6950
sg17
g90
sg19
g20
sa(dp6951
g6
g7
(g11
S'\x14\xaeG\xe1zT:@'
p6952
tp6953
Rp6954
sg17
g95
sg19
g20
sa(dp6955
g6
g7
(g11
S'\n\xd7\xa3p=*V\xc0'
p6956
tp6957
Rp6958
sg17
g100
sg19
g20
sa(dp6959
g6
g7
(g11
S'\x8f\xc2\xf5(\\\x8f\x14\xc0'
p6960
tp6961
Rp6962
sg17
g105
sg19
g20
sa(dp6963
g6
g7
(g11
S'\x1f\x85\xebQ\xb8\x1e\xe5?'
p6964
tp6965
Rp6966
sg17
g110
sg19
g20
sa(dp6967
g6
g7
(g11
S'\xe1z\x14\xaeG!J@'
p6968
tp6969
Rp6970
sg17
g115
sg19
g20
sa(dp6971
g6
g7
(g11
S'q=\n\xd7\xa3p\x18@'
p6972
tp6973
Rp6974
sg17
g120
sg19
g20
sa(dp6975
g6
g7
(g11
S'=\n\xd7\xa3p\xfd>@'
p6976
tp6977
Rp6978
sg17
g125
sg19
g20
sa(dp6979
g6
g7
(g11
S'\x85\xebQ\xb8\x1e\xc5D@'
p6980
tp6981
Rp6982
sg17
g130
sg19
g20
sa(dp6983
g6
g7
(g11
S'\xc3\xf5(\\\x8fB#\xc0'
p6984
tp6985
Rp6986
sg17
g135
sg19
g20
sa(dp6987
g6
g7
(g11
S'\xe1z\x14\xaeG\xe1[@'
p6988
tp6989
Rp6990
sg17
g140
sg19
g20
sa(dp6991
g6
g7
(g11
S'\x1f\x85\xebQ\xb8^U@'
p6992
tp6993
Rp6994
sg17
g145
sg19
g20
sa(dp6995
g6
g7
(g11
S'fffffVQ@'
p6996
tp6997
Rp6998
sg17
g150
sg19
g20
sa(dp6999
g6
g7
(g11
S')\\\x8f\xc2\xf5(+@'
p7000
tp7001
Rp7002
sg17
g155
sg19
g20
sa(dp7003
g6
g7
(g11
S'\xb8\x1e\x85\xebQ\xb8\x1d\xc0'
p7004
tp7005
Rp7006
sg17
g160
sg19
g20
sasg161
g162
sa.