(lp0
(dp1
S'duration'
p2
I1
sS'objectives'
p3
(lp4
(dp5
S'consign'
p6
F-136.66
sS'name'
p7
S'l_shoulder_y'
p8
sS'nature'
p9
S'L'
p10
sa(dp11
g6
F-1.1
sg7
S'l_shoulder_x'
p12
sg9
g10
sa(dp13
g6
F1.1
sg7
S'l_arm_z'
p14
sg9
g10
sa(dp15
g6
F2.15
sg7
S'l_elbow_y'
p16
sg9
g10
sa(dp17
g6
F-128.22
sg7
S'r_shoulder_y'
p18
sg9
g10
sa(dp19
g6
F-6.02
sg7
S'r_shoulder_x'
p20
sg9
g10
sa(dp21
g6
F-0.4
sg7
S'r_arm_z'
p22
sg9
g10
sa(dp23
g6
F3.03
sg7
S'r_elbow_y'
p24
sg9
g10
sa(dp25
g6
F-1.91
sg7
S'head_y'
p26
sg9
g10
sa(dp27
g6
F-8.71
sg7
S'head_z'
p28
sg9
g10
sa(dp29
g6
F8.13
sg7
S'abs_y'
p30
sg9
g10
sa(dp31
g6
F4.53
sg7
S'abs_x'
p32
sg9
g10
sa(dp33
g6
F-0.04
sg7
S'abs_z'
p34
sg9
g10
sa(dp35
g6
F-24.92
sg7
S'bust_y'
p36
sg9
g10
sa(dp37
g6
F-4.26
sg7
S'bust_x'
p38
sg9
g10
sa(dp39
g6
F10.15
sg7
S'l_hip_x'
p40
sg9
g10
sa(dp41
g6
F8.04
sg7
S'l_hip_z'
p42
sg9
g10
sa(dp43
g6
F-1.8
sg7
S'l_hip_y'
p44
sg9
g10
sa(dp45
g6
F-1.19
sg7
S'l_knee_y'
p46
sg9
g10
sa(dp47
g6
F6.9
sg7
S'l_ankle_y'
p48
sg9
g10
sa(dp49
g6
F-6.73
sg7
S'r_hip_x'
p50
sg9
g10
sa(dp51
g6
F-16.75
sg7
S'r_hip_z'
p52
sg9
g10
sa(dp53
g6
F2.51
sg7
S'r_hip_y'
p54
sg9
g10
sa(dp55
g6
F-1.01
sg7
S'r_knee_y'
p56
sg9
g10
sa(dp57
g6
F6.99
sg7
S'r_ankle_y'
p58
sg9
g10
sa(dp59
g6
I0
sg7
S'r_wrist_z'
p60
sg9
g10
sa(dp61
g6
I0
sg7
S'r_wrist_x'
p62
sg9
g10
sa(dp63
g6
I0
sg7
S'l_wrist_z'
p64
sg9
g10
sa(dp65
g6
I0
sg7
S'l_wrist_x'
p66
sg9
g10
sasg7
S'toto'
p67
sa(dp68
g2
I1
sg3
(lp69
(dp70
g6
F-135.69
sg7
g8
sg9
g10
sa(dp71
g6
F0.13
sg7
g12
sg9
g10
sa(dp72
g6
F1.01
sg7
g14
sg9
g10
sa(dp73
g6
F0.22
sg7
g16
sg9
g10
sa(dp74
g6
F-126.9
sg7
g18
sg9
g10
sa(dp75
g6
F-6.02
sg7
g20
sg9
g10
sa(dp76
g6
F-0.4
sg7
g22
sg9
g10
sa(dp77
g6
F0.22
sg7
g24
sg9
g10
sa(dp78
g6
F-2.2
sg7
g26
sg9
g10
sa(dp79
g6
F-8.71
sg7
g28
sg9
g10
sa(dp80
g6
F9.8
sg7
g30
sg9
g10
sa(dp81
g6
F4.44
sg7
g32
sg9
g10
sa(dp82
g6
F0.4
sg7
g34
sg9
g10
sa(dp83
g6
F-18.86
sg7
g36
sg9
g10
sa(dp84
g6
F-4.53
sg7
g38
sg9
g10
sa(dp85
g6
F13.32
sg7
g40
sg9
g10
sa(dp86
g6
F8.04
sg7
g42
sg9
g10
sa(dp87
g6
F-7.52
sg7
g44
sg9
g10
sa(dp88
g6
F-0.4
sg7
g46
sg9
g10
sa(dp89
g6
F-4.62
sg7
g48
sg9
g10
sa(dp90
g6
F-3.38
sg7
g50
sg9
g10
sa(dp91
g6
F-14.55
sg7
g52
sg9
g10
sa(dp92
g6
F-4.79
sg7
g54
sg9
g10
sa(dp93
g6
F-0.75
sg7
g56
sg9
g10
sa(dp94
g6
F-6.02
sg7
g58
sg9
g10
sa(dp95
g6
I0
sg7
g60
sg9
g10
sa(dp96
g6
I0
sg7
g62
sg9
g10
sa(dp97
g6
I0
sg7
g64
sg9
g10
sa(dp98
g6
I0
sg7
g66
sg9
g10
sasg7
g67
sa(dp99
g2
I1
sg3
(lp100
(dp101
g6
F-135.69
sg7
g8
sg9
g10
sa(dp102
g6
F0.22
sg7
g12
sg9
g10
sa(dp103
g6
F0.84
sg7
g14
sg9
g10
sa(dp104
g6
F0.22
sg7
g16
sg9
g10
sa(dp105
g6
F-126.9
sg7
g18
sg9
g10
sa(dp106
g6
F-5.93
sg7
g20
sg9
g10
sa(dp107
g6
F-0.4
sg7
g22
sg9
g10
sa(dp108
g6
F0.13
sg7
g24
sg9
g10
sa(dp109
g6
F-1.91
sg7
g26
sg9
g10
sa(dp110
g6
F-8.12
sg7
g28
sg9
g10
sa(dp111
g6
F-8.4
sg7
g30
sg9
g10
sa(dp112
g6
F4.62
sg7
g32
sg9
g10
sa(dp113
g6
F-0.22
sg7
g34
sg9
g10
sa(dp114
g6
F16.48
sg7
g36
sg9
g10
sa(dp115
g6
F-4.53
sg7
g38
sg9
g10
sa(dp116
g6
F10.59
sg7
g40
sg9
g10
sa(dp117
g6
F8.22
sg7
g42
sg9
g10
sa(dp118
g6
F-7.16
sg7
g44
sg9
g10
sa(dp119
g6
F0.84
sg7
g46
sg9
g10
sa(dp120
g6
F-6.2
sg7
g48
sg9
g10
sa(dp121
g6
F-3.65
sg7
g50
sg9
g10
sa(dp122
g6
F-14.73
sg7
g52
sg9
g10
sa(dp123
g6
F-4.62
sg7
g54
sg9
g10
sa(dp124
g6
F0.57
sg7
g56
sg9
g10
sa(dp125
g6
F-7.25
sg7
g58
sg9
g10
sa(dp126
g6
I0
sg7
g60
sg9
g10
sa(dp127
g6
I0
sg7
g62
sg9
g10
sa(dp128
g6
I0
sg7
g64
sg9
g10
sa(dp129
g6
I0
sg7
g66
sg9
g10
sasg7
g67
sa(dp130
g2
I1
sg3
(lp131
(dp132
g6
F-103.6
sg7
g8
sg9
g10
sa(dp133
g6
F-2.07
sg7
g12
sg9
g10
sa(dp134
g6
F-52.7
sg7
g14
sg9
g10
sa(dp135
g6
F-45.76
sg7
g16
sg9
g10
sa(dp136
g6
F-90.33
sg7
g18
sg9
g10
sa(dp137
g6
F-23.08
sg7
g20
sg9
g10
sa(dp138
g6
F36.18
sg7
g22
sg9
g10
sa(dp139
g6
F-75.47
sg7
g24
sg9
g10
sa(dp140
g6
F-1.91
sg7
g26
sg9
g10
sa(dp141
g6
F-8.71
sg7
g28
sg9
g10
sa(dp142
g6
F-5.23
sg7
g30
sg9
g10
sa(dp143
g6
F-2.77
sg7
g32
sg9
g10
sa(dp144
g6
F-3.3
sg7
g34
sg9
g10
sa(dp145
g6
F-7.16
sg7
g36
sg9
g10
sa(dp146
g6
F-0.22
sg7
g38
sg9
g10
sa(dp147
g6
F10.77
sg7
g40
sg9
g10
sa(dp148
g6
F8.31
sg7
g42
sg9
g10
sa(dp149
g6
F-7.25
sg7
g44
sg9
g10
sa(dp150
g6
F0.48
sg7
g46
sg9
g10
sa(dp151
g6
F-6.2
sg7
g48
sg9
g10
sa(dp152
g6
F-2.42
sg7
g50
sg9
g10
sa(dp153
g6
F-14.46
sg7
g52
sg9
g10
sa(dp154
g6
F-4.62
sg7
g54
sg9
g10
sa(dp155
g6
F0.57
sg7
g56
sg9
g10
sa(dp156
g6
F-7.43
sg7
g58
sg9
g10
sa(dp157
g6
I0
sg7
g60
sg9
g10
sa(dp158
g6
I0
sg7
g62
sg9
g10
sa(dp159
g6
I0
sg7
g64
sg9
g10
sa(dp160
g6
I0
sg7
g66
sg9
g10
sasg7
g67
sa(dp161
g2
I1
sg3
(lp162
(dp163
g6
F-137.45
sg7
g8
sg9
g10
sa(dp164
g6
F-11.47
sg7
g12
sg9
g10
sa(dp165
g6
F-36.62
sg7
g14
sg9
g10
sa(dp166
g6
F-92.62
sg7
g16
sg9
g10
sa(dp167
g6
F-145.1
sg7
g18
sg9
g10
sa(dp168
g6
F-10.42
sg7
g20
sg9
g10
sa(dp169
g6
F44.88
sg7
g22
sg9
g10
sa(dp170
g6
F-109.14
sg7
g24
sg9
g10
sa(dp171
g6
F-1.91
sg7
g26
sg9
g10
sa(dp172
g6
F-8.71
sg7
g28
sg9
g10
sa(dp173
g6
F-5.58
sg7
g30
sg9
g10
sa(dp174
g6
F-2.95
sg7
g32
sg9
g10
sa(dp175
g6
F-3.47
sg7
g34
sg9
g10
sa(dp176
g6
F-7.6
sg7
g36
sg9
g10
sa(dp177
g6
F-0.92
sg7
g38
sg9
g10
sa(dp178
g6
F11.3
sg7
g40
sg9
g10
sa(dp179
g6
F8.22
sg7
g42
sg9
g10
sa(dp180
g6
F-7.16
sg7
g44
sg9
g10
sa(dp181
g6
F0.75
sg7
g46
sg9
g10
sa(dp182
g6
F-6.2
sg7
g48
sg9
g10
sa(dp183
g6
F-1.71
sg7
g50
sg9
g10
sa(dp184
g6
F-14.29
sg7
g52
sg9
g10
sa(dp185
g6
F-4.44
sg7
g54
sg9
g10
sa(dp186
g6
F0.84
sg7
g56
sg9
g10
sa(dp187
g6
F-7.43
sg7
g58
sg9
g10
sa(dp188
g6
I0
sg7
g60
sg9
g10
sa(dp189
g6
I0
sg7
g62
sg9
g10
sa(dp190
g6
I0
sg7
g64
sg9
g10
sa(dp191
g6
I0
sg7
g66
sg9
g10
sasg7
g67
sa(dp192
g2
I1
sg3
(lp193
(dp194
g6
F-106.15
sg7
g8
sg9
g10
sa(dp195
g6
F-13.85
sg7
g12
sg9
g10
sa(dp196
g6
F-59.56
sg7
g14
sg9
g10
sa(dp197
g6
F-113.1
sg7
g16
sg9
g10
sa(dp198
g6
F-117.93
sg7
g18
sg9
g10
sa(dp199
g6
F2.24
sg7
g20
sg9
g10
sa(dp200
g6
F28.0
sg7
g22
sg9
g10
sa(dp201
g6
F-134.64
sg7
g24
sg9
g10
sa(dp202
g6
F-1.91
sg7
g26
sg9
g10
sa(dp203
g6
F-8.71
sg7
g28
sg9
g10
sa(dp204
g6
F-5.49
sg7
g30
sg9
g10
sa(dp205
g6
F-2.51
sg7
g32
sg9
g10
sa(dp206
g6
F-4.18
sg7
g34
sg9
g10
sa(dp207
g6
F-7.6
sg7
g36
sg9
g10
sa(dp208
g6
F0.22
sg7
g38
sg9
g10
sa(dp209
g6
F10.77
sg7
g40
sg9
g10
sa(dp210
g6
F8.22
sg7
g42
sg9
g10
sa(dp211
g6
F-6.99
sg7
g44
sg9
g10
sa(dp212
g6
F1.1
sg7
g46
sg9
g10
sa(dp213
g6
F-5.58
sg7
g48
sg9
g10
sa(dp214
g6
F-2.42
sg7
g50
sg9
g10
sa(dp215
g6
F-14.2
sg7
g52
sg9
g10
sa(dp216
g6
F-4.62
sg7
g54
sg9
g10
sa(dp217
g6
F0.84
sg7
g56
sg9
g10
sa(dp218
g6
F-7.43
sg7
g58
sg9
g10
sa(dp219
g6
I0
sg7
g60
sg9
g10
sa(dp220
g6
I0
sg7
g62
sg9
g10
sa(dp221
g6
I0
sg7
g64
sg9
g10
sa(dp222
g6
I0
sg7
g66
sg9
g10
sasg7
g67
sa(dp223
g2
I1
sg3
(lp224
(dp225
g6
F-3.82
sg7
g8
sg9
g10
sa(dp226
g6
F15.6
sg7
g12
sg9
g10
sa(dp227
g6
F-54.37
sg7
g14
sg9
g10
sa(dp228
g6
F0.48
sg7
g16
sg9
g10
sa(dp229
g6
F-76.44
sg7
g18
sg9
g10
sa(dp230
g6
F-9.19
sg7
g20
sg9
g10
sa(dp231
g6
F8.31
sg7
g22
sg9
g10
sa(dp232
g6
F-82.86
sg7
g24
sg9
g10
sa(dp233
g6
F-2.2
sg7
g26
sg9
g10
sa(dp234
g6
F-8.71
sg7
g28
sg9
g10
sa(dp235
g6
F-5.49
sg7
g30
sg9
g10
sa(dp236
g6
F-2.77
sg7
g32
sg9
g10
sa(dp237
g6
F-3.3
sg7
g34
sg9
g10
sa(dp238
g6
F-7.34
sg7
g36
sg9
g10
sa(dp239
g6
F-0.4
sg7
g38
sg9
g10
sa(dp240
g6
F10.77
sg7
g40
sg9
g10
sa(dp241
g6
F7.96
sg7
g42
sg9
g10
sa(dp242
g6
F-7.52
sg7
g44
sg9
g10
sa(dp243
g6
F0.31
sg7
g46
sg9
g10
sa(dp244
g6
F-5.58
sg7
g48
sg9
g10
sa(dp245
g6
F-2.42
sg7
g50
sg9
g10
sa(dp246
g6
F-14.46
sg7
g52
sg9
g10
sa(dp247
g6
F-4.53
sg7
g54
sg9
g10
sa(dp248
g6
F0.84
sg7
g56
sg9
g10
sa(dp249
g6
F-7.52
sg7
g58
sg9
g10
sa(dp250
g6
I0
sg7
g60
sg9
g10
sa(dp251
g6
I0
sg7
g62
sg9
g10
sa(dp252
g6
I0
sg7
g64
sg9
g10
sa(dp253
g6
I0
sg7
g66
sg9
g10
sasg7
g67
sa(dp254
g2
I1
sg3
(lp255
(dp256
g6
F-3.82
sg7
g8
sg9
g10
sa(dp257
g6
F13.14
sg7
g12
sg9
g10
sa(dp258
g6
F-54.37
sg7
g14
sg9
g10
sa(dp259
g6
F0.48
sg7
g16
sg9
g10
sa(dp260
g6
F-84.53
sg7
g18
sg9
g10
sa(dp261
g6
F-9.1
sg7
g20
sg9
g10
sa(dp262
g6
F5.58
sg7
g22
sg9
g10
sa(dp263
g6
F-82.86
sg7
g24
sg9
g10
sa(dp264
g6
F-2.49
sg7
g26
sg9
g10
sa(dp265
g6
F25.009999999999998
sg7
g28
sg9
g10
sa(dp266
g6
F-4.62
sg7
g30
sg9
g10
sa(dp267
g6
F-2.24
sg7
g32
sg9
g10
sa(dp268
g6
F-3.82
sg7
g34
sg9
g10
sa(dp269
g6
F-5.85
sg7
g36
sg9
g10
sa(dp270
g6
F0.31
sg7
g38
sg9
g10
sa(dp271
g6
F10.59
sg7
g40
sg9
g10
sa(dp272
g6
F8.04
sg7
g42
sg9
g10
sa(dp273
g6
F-7.78
sg7
g44
sg9
g10
sa(dp274
g6
F0.22
sg7
g46
sg9
g10
sa(dp275
g6
F-5.58
sg7
g48
sg9
g10
sa(dp276
g6
F-2.59
sg7
g50
sg9
g10
sa(dp277
g6
F-14.37
sg7
g52
sg9
g10
sa(dp278
g6
F-5.14
sg7
g54
sg9
g10
sa(dp279
g6
F0.4
sg7
g56
sg9
g10
sa(dp280
g6
F-7.34
sg7
g58
sg9
g10
sa(dp281
g6
I0
sg7
g60
sg9
g10
sa(dp282
g6
I0
sg7
g62
sg9
g10
sa(dp283
g6
I0
sg7
g64
sg9
g10
sa(dp284
g6
I0
sg7
g66
sg9
g10
sasg7
g67
sa.